

Microchip Technology PIC18 LITE Macro Assembler V1.34 build -361300703 
                                                                                               Thu Jul 16 05:56:32 2015

Microchip Technology Omniscient Code Generator (Lite mode) build 201502162209
     1                           	processor	18F25K80
     2                           	fnconf	rparam,??,?,0
     3                           	opt	pw 120
     4                           	opt	lm
     5                           	psect	mediumconst,global,reloc=2,class=MEDIUMCONST,delta=1
     6                           	psect	cinit,global,reloc=2,class=CODE,delta=1
     7                           	psect	bssCOMRAM,global,class=COMRAM,space=1,delta=1
     8                           	psect	bssBANK0,global,class=BANK0,space=1,delta=1
     9                           	psect	bssBANK1,global,class=BANK1,space=1,delta=1
    10                           	psect	cstackCOMRAM,global,class=COMRAM,space=1,delta=1
    11                           	psect	text0,global,reloc=2,class=CODE,delta=1
    12                           	psect	text1,global,reloc=2,class=CODE,delta=1
    13                           	psect	text2,global,reloc=2,class=CODE,delta=1
    14                           	psect	text3,global,reloc=2,class=CODE,delta=1
    15                           	psect	text4,global,reloc=2,class=CODE,delta=1
    16                           	psect	text5,global,reloc=2,class=CODE,delta=1
    17                           	psect	text6,global,reloc=2,class=CODE,delta=1
    18                           	psect	text7,global,reloc=2,class=CODE,delta=1
    19                           	psect	text8,global,reloc=2,class=CODE,delta=1
    20                           	psect	text9,global,reloc=2,class=CODE,delta=1
    21                           	psect	text10,global,reloc=2,class=CODE,delta=1
    22                           	psect	text11,global,reloc=2,class=CODE,delta=1
    23                           	psect	text12,global,reloc=2,class=CODE,delta=1
    24                           	psect	text13,global,reloc=2,class=CODE,delta=1
    25                           	psect	text14,global,reloc=2,class=CODE,delta=1
    26                           	psect	text15,global,reloc=2,class=CODE,delta=1
    27                           	psect	text16,global,reloc=2,class=CODE,delta=1
    28                           	psect	intsave_regs,global,class=BIGRAM,space=1,delta=1
    29                           	psect	rparam,global,class=COMRAM,space=1,delta=1
    30                           	dabs	1,0xC00,1,_tmpData
    31                           	dabs	1,0xC03,240,_ledData
    32                           	dabs	1,0xC01,1,_bitCount
    33                           	dabs	1,0xC02,1,_ledCount
    34  0000                     
    35                           	psect	mediumconst
    36  0079FE                     __pmediumconst:
    37                           	opt stack 0
    38  0079FE  00                 	db	0
    39  0079FF                     _Sinewave:
    40                           	opt stack 0
    41  0079FF  0000               	dw	0
    42  007A01  00C9               	dw	201
    43  007A03  0192               	dw	402
    44  007A05  025B               	dw	603
    45  007A07  0324               	dw	804
    46  007A09  03ED               	dw	1005
    47  007A0B  04B6               	dw	1206
    48  007A0D  057E               	dw	1406
    49  007A0F  0647               	dw	1607
    50  007A11  0710               	dw	1808
    51  007A13  07D9               	dw	2009
    52  007A15  08A1               	dw	2209
    53  007A17  096A               	dw	2410
    54  007A19  0A32               	dw	2610
    55  007A1B  0AFB               	dw	2811
    56  007A1D  0BC3               	dw	3011
    57  007A1F  0C8B               	dw	3211
    58  007A21  0D53               	dw	3411
    59  007A23  0E1B               	dw	3611
    60  007A25  0EE3               	dw	3811
    61  007A27  0FAB               	dw	4011
    62  007A29  1072               	dw	4210
    63  007A2B  1139               	dw	4409
    64  007A2D  1200               	dw	4608
    65  007A2F  12C7               	dw	4807
    66  007A31  138E               	dw	5006
    67  007A33  1455               	dw	5205
    68  007A35  151B               	dw	5403
    69  007A37  15E1               	dw	5601
    70  007A39  16A7               	dw	5799
    71  007A3B  176D               	dw	5997
    72  007A3D  1833               	dw	6195
    73  007A3F  18F8               	dw	6392
    74  007A41  19BD               	dw	6589
    75  007A43  1A82               	dw	6786
    76  007A45  1B46               	dw	6982
    77  007A47  1C0B               	dw	7179
    78  007A49  1CCF               	dw	7375
    79  007A4B  1D93               	dw	7571
    80  007A4D  1E56               	dw	7766
    81  007A4F  1F19               	dw	7961
    82  007A51  1FDC               	dw	8156
    83  007A53  209F               	dw	8351
    84  007A55  2161               	dw	8545
    85  007A57  2223               	dw	8739
    86  007A59  22E4               	dw	8932
    87  007A5B  23A6               	dw	9126
    88  007A5D  2467               	dw	9319
    89  007A5F  2527               	dw	9511
    90  007A61  25E7               	dw	9703
    91  007A63  26A7               	dw	9895
    92  007A65  2767               	dw	10087
    93  007A67  2826               	dw	10278
    94  007A69  28E5               	dw	10469
    95  007A6B  29A3               	dw	10659
    96  007A6D  2A61               	dw	10849
    97  007A6F  2B1E               	dw	11038
    98  007A71  2BDB               	dw	11227
    99  007A73  2C98               	dw	11416
   100  007A75  2D54               	dw	11604
   101  007A77  2E10               	dw	11792
   102  007A79  2ECC               	dw	11980
   103  007A7B  2F86               	dw	12166
   104  007A7D  3041               	dw	12353
   105  007A7F  30FB               	dw	12539
   106  007A81  31B4               	dw	12724
   107  007A83  326D               	dw	12909
   108  007A85  3326               	dw	13094
   109  007A87  33DE               	dw	13278
   110  007A89  3496               	dw	13462
   111  007A8B  354D               	dw	13645
   112  007A8D  3603               	dw	13827
   113  007A8F  36B9               	dw	14009
   114  007A91  376F               	dw	14191
   115  007A93  3824               	dw	14372
   116  007A95  38D8               	dw	14552
   117  007A97  398C               	dw	14732
   118  007A99  3A3F               	dw	14911
   119  007A9B  3AF2               	dw	15090
   120  007A9D  3BA4               	dw	15268
   121  007A9F  3C56               	dw	15446
   122  007AA1  3D07               	dw	15623
   123  007AA3  3DB7               	dw	15799
   124  007AA5  3E67               	dw	15975
   125  007AA7  3F16               	dw	16150
   126  007AA9  3FC5               	dw	16325
   127  007AAB  4073               	dw	16499
   128  007AAD  4120               	dw	16672
   129  007AAF  41CD               	dw	16845
   130  007AB1  4279               	dw	17017
   131  007AB3  4325               	dw	17189
   132  007AB5  43D0               	dw	17360
   133  007AB7  447A               	dw	17530
   134  007AB9  4523               	dw	17699
   135  007ABB  45CC               	dw	17868
   136  007ABD  4674               	dw	18036
   137  007ABF  471C               	dw	18204
   138  007AC1  47C3               	dw	18371
   139  007AC3  4869               	dw	18537
   140  007AC5  490E               	dw	18702
   141  007AC7  49B3               	dw	18867
   142  007AC9  4A57               	dw	19031
   143  007ACB  4AFA               	dw	19194
   144  007ACD  4B9D               	dw	19357
   145  007ACF  4C3F               	dw	19519
   146  007AD1  4CE0               	dw	19680
   147  007AD3  4D80               	dw	19840
   148  007AD5  4E20               	dw	20000
   149  007AD7  4EBF               	dw	20159
   150  007AD9  4F5D               	dw	20317
   151  007ADB  4FFA               	dw	20474
   152  007ADD  5097               	dw	20631
   153  007ADF  5133               	dw	20787
   154  007AE1  51CE               	dw	20942
   155  007AE3  5268               	dw	21096
   156  007AE5  5301               	dw	21249
   157  007AE7  539A               	dw	21402
   158  007AE9  5432               	dw	21554
   159  007AEB  54C9               	dw	21705
   160  007AED  555F               	dw	21855
   161  007AEF  55F4               	dw	22004
   162  007AF1  5689               	dw	22153
   163  007AF3  571D               	dw	22301
   164  007AF5  57B0               	dw	22448
   165  007AF7  5842               	dw	22594
   166  007AF9  58D3               	dw	22739
   167  007AFB  5963               	dw	22883
   168  007AFD  59F3               	dw	23027
   169  007AFF  5A81               	dw	23169
   170  007B01  5B0F               	dw	23311
   171  007B03  5B9C               	dw	23452
   172  007B05  5C28               	dw	23592
   173  007B07  5CB3               	dw	23731
   174  007B09  5D3D               	dw	23869
   175  007B0B  5DC6               	dw	24006
   176  007B0D  5E4F               	dw	24143
   177  007B0F  5ED6               	dw	24278
   178  007B11  5F5D               	dw	24413
   179  007B13  5FE2               	dw	24546
   180  007B15  6067               	dw	24679
   181  007B17  60EB               	dw	24811
   182  007B19  616E               	dw	24942
   183  007B1B  61F0               	dw	25072
   184  007B1D  6271               	dw	25201
   185  007B1F  62F1               	dw	25329
   186  007B21  6370               	dw	25456
   187  007B23  63EE               	dw	25582
   188  007B25  646B               	dw	25707
   189  007B27  64E7               	dw	25831
   190  007B29  6562               	dw	25954
   191  007B2B  65DD               	dw	26077
   192  007B2D  6656               	dw	26198
   193  007B2F  66CE               	dw	26318
   194  007B31  6745               	dw	26437
   195  007B33  67BC               	dw	26556
   196  007B35  6831               	dw	26673
   197  007B37  68A5               	dw	26789
   198  007B39  6919               	dw	26905
   199  007B3B  698B               	dw	27019
   200  007B3D  69FC               	dw	27132
   201  007B3F  6A6C               	dw	27244
   202  007B41  6ADB               	dw	27355
   203  007B43  6B4A               	dw	27466
   204  007B45  6BB7               	dw	27575
   205  007B47  6C23               	dw	27683
   206  007B49  6C8E               	dw	27790
   207  007B4B  6CF8               	dw	27896
   208  007B4D  6D61               	dw	28001
   209  007B4F  6DC9               	dw	28105
   210  007B51  6E30               	dw	28208
   211  007B53  6E95               	dw	28309
   212  007B55  6EFA               	dw	28410
   213  007B57  6F5E               	dw	28510
   214  007B59  6FC0               	dw	28608
   215  007B5B  7022               	dw	28706
   216  007B5D  7082               	dw	28802
   217  007B5F  70E1               	dw	28897
   218  007B61  7140               	dw	28992
   219  007B63  719D               	dw	29085
   220  007B65  71F9               	dw	29177
   221  007B67  7254               	dw	29268
   222  007B69  72AE               	dw	29358
   223  007B6B  7306               	dw	29446
   224  007B6D  735E               	dw	29534
   225  007B6F  73B5               	dw	29621
   226  007B71  740A               	dw	29706
   227  007B73  745E               	dw	29790
   228  007B75  74B1               	dw	29873
   229  007B77  7503               	dw	29955
   230  007B79  7554               	dw	30036
   231  007B7B  75A4               	dw	30116
   232  007B7D  75F3               	dw	30195
   233  007B7F  7640               	dw	30272
   234  007B81  768D               	dw	30349
   235  007B83  76D8               	dw	30424
   236  007B85  7722               	dw	30498
   237  007B87  776B               	dw	30571
   238  007B89  77B3               	dw	30643
   239  007B8B  77F9               	dw	30713
   240  007B8D  783F               	dw	30783
   241  007B8F  7883               	dw	30851
   242  007B91  78C6               	dw	30918
   243  007B93  7908               	dw	30984
   244  007B95  7949               	dw	31049
   245  007B97  7989               	dw	31113
   246  007B99  79C7               	dw	31175
   247  007B9B  7A04               	dw	31236
   248  007B9D  7A41               	dw	31297
   249  007B9F  7A7C               	dw	31356
   250  007BA1  7AB5               	dw	31413
   251  007BA3  7AEE               	dw	31470
   252  007BA5  7B25               	dw	31525
   253  007BA7  7B5C               	dw	31580
   254  007BA9  7B91               	dw	31633
   255  007BAB  7BC4               	dw	31684
   256  007BAD  7BF7               	dw	31735
   257  007BAF  7C29               	dw	31785
   258  007BB1  7C59               	dw	31833
   259  007BB3  7C88               	dw	31880
   260  007BB5  7CB6               	dw	31926
   261  007BB7  7CE2               	dw	31970
   262  007BB9  7D0E               	dw	32014
   263  007BBB  7D38               	dw	32056
   264  007BBD  7D61               	dw	32097
   265  007BBF  7D89               	dw	32137
   266  007BC1  7DB0               	dw	32176
   267  007BC3  7DD5               	dw	32213
   268  007BC5  7DF9               	dw	32249
   269  007BC7  7E1C               	dw	32284
   270  007BC9  7E3E               	dw	32318
   271  007BCB  7E5E               	dw	32350
   272  007BCD  7E7E               	dw	32382
   273  007BCF  7E9C               	dw	32412
   274  007BD1  7EB9               	dw	32441
   275  007BD3  7ED4               	dw	32468
   276  007BD5  7EEF               	dw	32495
   277  007BD7  7F08               	dw	32520
   278  007BD9  7F20               	dw	32544
   279  007BDB  7F37               	dw	32567
   280  007BDD  7F4C               	dw	32588
   281  007BDF  7F61               	dw	32609
   282  007BE1  7F74               	dw	32628
   283  007BE3  7F86               	dw	32646
   284  007BE5  7F96               	dw	32662
   285  007BE7  7FA6               	dw	32678
   286  007BE9  7FB4               	dw	32692
   287  007BEB  7FC1               	dw	32705
   288  007BED  7FCD               	dw	32717
   289  007BEF  7FD7               	dw	32727
   290  007BF1  7FE0               	dw	32736
   291  007BF3  7FE8               	dw	32744
   292  007BF5  7FEF               	dw	32751
   293  007BF7  7FF5               	dw	32757
   294  007BF9  7FF9               	dw	32761
   295  007BFB  7FFC               	dw	32764
   296  007BFD  7FFE               	dw	32766
   297  007BFF  7FFF               	dw	32767
   298  007C01  7FFE               	dw	32766
   299  007C03  7FFC               	dw	32764
   300  007C05  7FF9               	dw	32761
   301  007C07  7FF5               	dw	32757
   302  007C09  7FEF               	dw	32751
   303  007C0B  7FE8               	dw	32744
   304  007C0D  7FE0               	dw	32736
   305  007C0F  7FD7               	dw	32727
   306  007C11  7FCD               	dw	32717
   307  007C13  7FC1               	dw	32705
   308  007C15  7FB4               	dw	32692
   309  007C17  7FA6               	dw	32678
   310  007C19  7F96               	dw	32662
   311  007C1B  7F86               	dw	32646
   312  007C1D  7F74               	dw	32628
   313  007C1F  7F61               	dw	32609
   314  007C21  7F4C               	dw	32588
   315  007C23  7F37               	dw	32567
   316  007C25  7F20               	dw	32544
   317  007C27  7F08               	dw	32520
   318  007C29  7EEF               	dw	32495
   319  007C2B  7ED4               	dw	32468
   320  007C2D  7EB9               	dw	32441
   321  007C2F  7E9C               	dw	32412
   322  007C31  7E7E               	dw	32382
   323  007C33  7E5E               	dw	32350
   324  007C35  7E3E               	dw	32318
   325  007C37  7E1C               	dw	32284
   326  007C39  7DF9               	dw	32249
   327  007C3B  7DD5               	dw	32213
   328  007C3D  7DB0               	dw	32176
   329  007C3F  7D89               	dw	32137
   330  007C41  7D61               	dw	32097
   331  007C43  7D38               	dw	32056
   332  007C45  7D0E               	dw	32014
   333  007C47  7CE2               	dw	31970
   334  007C49  7CB6               	dw	31926
   335  007C4B  7C88               	dw	31880
   336  007C4D  7C59               	dw	31833
   337  007C4F  7C29               	dw	31785
   338  007C51  7BF7               	dw	31735
   339  007C53  7BC4               	dw	31684
   340  007C55  7B91               	dw	31633
   341  007C57  7B5C               	dw	31580
   342  007C59  7B25               	dw	31525
   343  007C5B  7AEE               	dw	31470
   344  007C5D  7AB5               	dw	31413
   345  007C5F  7A7C               	dw	31356
   346  007C61  7A41               	dw	31297
   347  007C63  7A04               	dw	31236
   348  007C65  79C7               	dw	31175
   349  007C67  7989               	dw	31113
   350  007C69  7949               	dw	31049
   351  007C6B  7908               	dw	30984
   352  007C6D  78C6               	dw	30918
   353  007C6F  7883               	dw	30851
   354  007C71  783F               	dw	30783
   355  007C73  77F9               	dw	30713
   356  007C75  77B3               	dw	30643
   357  007C77  776B               	dw	30571
   358  007C79  7722               	dw	30498
   359  007C7B  76D8               	dw	30424
   360  007C7D  768D               	dw	30349
   361  007C7F  7640               	dw	30272
   362  007C81  75F3               	dw	30195
   363  007C83  75A4               	dw	30116
   364  007C85  7554               	dw	30036
   365  007C87  7503               	dw	29955
   366  007C89  74B1               	dw	29873
   367  007C8B  745E               	dw	29790
   368  007C8D  740A               	dw	29706
   369  007C8F  73B5               	dw	29621
   370  007C91  735E               	dw	29534
   371  007C93  7306               	dw	29446
   372  007C95  72AE               	dw	29358
   373  007C97  7254               	dw	29268
   374  007C99  71F9               	dw	29177
   375  007C9B  719D               	dw	29085
   376  007C9D  7140               	dw	28992
   377  007C9F  70E1               	dw	28897
   378  007CA1  7082               	dw	28802
   379  007CA3  7022               	dw	28706
   380  007CA5  6FC0               	dw	28608
   381  007CA7  6F5E               	dw	28510
   382  007CA9  6EFA               	dw	28410
   383  007CAB  6E95               	dw	28309
   384  007CAD  6E30               	dw	28208
   385  007CAF  6DC9               	dw	28105
   386  007CB1  6D61               	dw	28001
   387  007CB3  6CF8               	dw	27896
   388  007CB5  6C8E               	dw	27790
   389  007CB7  6C23               	dw	27683
   390  007CB9  6BB7               	dw	27575
   391  007CBB  6B4A               	dw	27466
   392  007CBD  6ADB               	dw	27355
   393  007CBF  6A6C               	dw	27244
   394  007CC1  69FC               	dw	27132
   395  007CC3  698B               	dw	27019
   396  007CC5  6919               	dw	26905
   397  007CC7  68A5               	dw	26789
   398  007CC9  6831               	dw	26673
   399  007CCB  67BC               	dw	26556
   400  007CCD  6745               	dw	26437
   401  007CCF  66CE               	dw	26318
   402  007CD1  6656               	dw	26198
   403  007CD3  65DD               	dw	26077
   404  007CD5  6562               	dw	25954
   405  007CD7  64E7               	dw	25831
   406  007CD9  646B               	dw	25707
   407  007CDB  63EE               	dw	25582
   408  007CDD  6370               	dw	25456
   409  007CDF  62F1               	dw	25329
   410  007CE1  6271               	dw	25201
   411  007CE3  61F0               	dw	25072
   412  007CE5  616E               	dw	24942
   413  007CE7  60EB               	dw	24811
   414  007CE9  6067               	dw	24679
   415  007CEB  5FE2               	dw	24546
   416  007CED  5F5D               	dw	24413
   417  007CEF  5ED6               	dw	24278
   418  007CF1  5E4F               	dw	24143
   419  007CF3  5DC6               	dw	24006
   420  007CF5  5D3D               	dw	23869
   421  007CF7  5CB3               	dw	23731
   422  007CF9  5C28               	dw	23592
   423  007CFB  5B9C               	dw	23452
   424  007CFD  5B0F               	dw	23311
   425  007CFF  5A81               	dw	23169
   426  007D01  59F3               	dw	23027
   427  007D03  5963               	dw	22883
   428  007D05  58D3               	dw	22739
   429  007D07  5842               	dw	22594
   430  007D09  57B0               	dw	22448
   431  007D0B  571D               	dw	22301
   432  007D0D  5689               	dw	22153
   433  007D0F  55F4               	dw	22004
   434  007D11  555F               	dw	21855
   435  007D13  54C9               	dw	21705
   436  007D15  5432               	dw	21554
   437  007D17  539A               	dw	21402
   438  007D19  5301               	dw	21249
   439  007D1B  5268               	dw	21096
   440  007D1D  51CE               	dw	20942
   441  007D1F  5133               	dw	20787
   442  007D21  5097               	dw	20631
   443  007D23  4FFA               	dw	20474
   444  007D25  4F5D               	dw	20317
   445  007D27  4EBF               	dw	20159
   446  007D29  4E20               	dw	20000
   447  007D2B  4D80               	dw	19840
   448  007D2D  4CE0               	dw	19680
   449  007D2F  4C3F               	dw	19519
   450  007D31  4B9D               	dw	19357
   451  007D33  4AFA               	dw	19194
   452  007D35  4A57               	dw	19031
   453  007D37  49B3               	dw	18867
   454  007D39  490E               	dw	18702
   455  007D3B  4869               	dw	18537
   456  007D3D  47C3               	dw	18371
   457  007D3F  471C               	dw	18204
   458  007D41  4674               	dw	18036
   459  007D43  45CC               	dw	17868
   460  007D45  4523               	dw	17699
   461  007D47  447A               	dw	17530
   462  007D49  43D0               	dw	17360
   463  007D4B  4325               	dw	17189
   464  007D4D  4279               	dw	17017
   465  007D4F  41CD               	dw	16845
   466  007D51  4120               	dw	16672
   467  007D53  4073               	dw	16499
   468  007D55  3FC5               	dw	16325
   469  007D57  3F16               	dw	16150
   470  007D59  3E67               	dw	15975
   471  007D5B  3DB7               	dw	15799
   472  007D5D  3D07               	dw	15623
   473  007D5F  3C56               	dw	15446
   474  007D61  3BA4               	dw	15268
   475  007D63  3AF2               	dw	15090
   476  007D65  3A3F               	dw	14911
   477  007D67  398C               	dw	14732
   478  007D69  38D8               	dw	14552
   479  007D6B  3824               	dw	14372
   480  007D6D  376F               	dw	14191
   481  007D6F  36B9               	dw	14009
   482  007D71  3603               	dw	13827
   483  007D73  354D               	dw	13645
   484  007D75  3496               	dw	13462
   485  007D77  33DE               	dw	13278
   486  007D79  3326               	dw	13094
   487  007D7B  326D               	dw	12909
   488  007D7D  31B4               	dw	12724
   489  007D7F  30FB               	dw	12539
   490  007D81  3041               	dw	12353
   491  007D83  2F86               	dw	12166
   492  007D85  2ECC               	dw	11980
   493  007D87  2E10               	dw	11792
   494  007D89  2D54               	dw	11604
   495  007D8B  2C98               	dw	11416
   496  007D8D  2BDB               	dw	11227
   497  007D8F  2B1E               	dw	11038
   498  007D91  2A61               	dw	10849
   499  007D93  29A3               	dw	10659
   500  007D95  28E5               	dw	10469
   501  007D97  2826               	dw	10278
   502  007D99  2767               	dw	10087
   503  007D9B  26A7               	dw	9895
   504  007D9D  25E7               	dw	9703
   505  007D9F  2527               	dw	9511
   506  007DA1  2467               	dw	9319
   507  007DA3  23A6               	dw	9126
   508  007DA5  22E4               	dw	8932
   509  007DA7  2223               	dw	8739
   510  007DA9  2161               	dw	8545
   511  007DAB  209F               	dw	8351
   512  007DAD  1FDC               	dw	8156
   513  007DAF  1F19               	dw	7961
   514  007DB1  1E56               	dw	7766
   515  007DB3  1D93               	dw	7571
   516  007DB5  1CCF               	dw	7375
   517  007DB7  1C0B               	dw	7179
   518  007DB9  1B46               	dw	6982
   519  007DBB  1A82               	dw	6786
   520  007DBD  19BD               	dw	6589
   521  007DBF  18F8               	dw	6392
   522  007DC1  1833               	dw	6195
   523  007DC3  176D               	dw	5997
   524  007DC5  16A7               	dw	5799
   525  007DC7  15E1               	dw	5601
   526  007DC9  151B               	dw	5403
   527  007DCB  1455               	dw	5205
   528  007DCD  138E               	dw	5006
   529  007DCF  12C7               	dw	4807
   530  007DD1  1200               	dw	4608
   531  007DD3  1139               	dw	4409
   532  007DD5  1072               	dw	4210
   533  007DD7  0FAB               	dw	4011
   534  007DD9  0EE3               	dw	3811
   535  007DDB  0E1B               	dw	3611
   536  007DDD  0D53               	dw	3411
   537  007DDF  0C8B               	dw	3211
   538  007DE1  0BC3               	dw	3011
   539  007DE3  0AFB               	dw	2811
   540  007DE5  0A32               	dw	2610
   541  007DE7  096A               	dw	2410
   542  007DE9  08A1               	dw	2209
   543  007DEB  07D9               	dw	2009
   544  007DED  0710               	dw	1808
   545  007DEF  0647               	dw	1607
   546  007DF1  057E               	dw	1406
   547  007DF3  04B6               	dw	1206
   548  007DF5  03ED               	dw	1005
   549  007DF7  0324               	dw	804
   550  007DF9  025B               	dw	603
   551  007DFB  0192               	dw	402
   552  007DFD  00C9               	dw	201
   553  007DFF  0000               	dw	0
   554  007E01  FF37               	dw	65335
   555  007E03  FE6E               	dw	65134
   556  007E05  FDA5               	dw	64933
   557  007E07  FCDC               	dw	64732
   558  007E09  FC13               	dw	64531
   559  007E0B  FB4A               	dw	64330
   560  007E0D  FA82               	dw	64130
   561  007E0F  F9B9               	dw	63929
   562  007E11  F8F0               	dw	63728
   563  007E13  F827               	dw	63527
   564  007E15  F75F               	dw	63327
   565  007E17  F696               	dw	63126
   566  007E19  F5CE               	dw	62926
   567  007E1B  F505               	dw	62725
   568  007E1D  F43D               	dw	62525
   569  007E1F  F375               	dw	62325
   570  007E21  F2AD               	dw	62125
   571  007E23  F1E5               	dw	61925
   572  007E25  F11D               	dw	61725
   573  007E27  F055               	dw	61525
   574  007E29  EF8E               	dw	61326
   575  007E2B  EEC7               	dw	61127
   576  007E2D  EE00               	dw	60928
   577  007E2F  ED39               	dw	60729
   578  007E31  EC72               	dw	60530
   579  007E33  EBAB               	dw	60331
   580  007E35  EAE5               	dw	60133
   581  007E37  EA1F               	dw	59935
   582  007E39  E959               	dw	59737
   583  007E3B  E893               	dw	59539
   584  007E3D  E7CD               	dw	59341
   585  007E3F  E708               	dw	59144
   586  007E41  E643               	dw	58947
   587  007E43  E57E               	dw	58750
   588  007E45  E4BA               	dw	58554
   589  007E47  E3F5               	dw	58357
   590  007E49  E331               	dw	58161
   591  007E4B  E26D               	dw	57965
   592  007E4D  E1AA               	dw	57770
   593  007E4F  E0E7               	dw	57575
   594  007E51  E024               	dw	57380
   595  007E53  DF61               	dw	57185
   596  007E55  DE9F               	dw	56991
   597  007E57  DDDD               	dw	56797
   598  007E59  DD1C               	dw	56604
   599  007E5B  DC5A               	dw	56410
   600  007E5D  DB99               	dw	56217
   601  007E5F  DAD9               	dw	56025
   602  007E61  DA19               	dw	55833
   603  007E63  D959               	dw	55641
   604  007E65  D899               	dw	55449
   605  007E67  D7DA               	dw	55258
   606  007E69  D71B               	dw	55067
   607  007E6B  D65D               	dw	54877
   608  007E6D  D59F               	dw	54687
   609  007E6F  D4E2               	dw	54498
   610  007E71  D425               	dw	54309
   611  007E73  D368               	dw	54120
   612  007E75  D2AC               	dw	53932
   613  007E77  D1F0               	dw	53744
   614  007E79  D134               	dw	53556
   615  007E7B  D07A               	dw	53370
   616  007E7D  CFBF               	dw	53183
   617  007E7F  CF05               	dw	52997
   618  007E81  CE4C               	dw	52812
   619  007E83  CD93               	dw	52627
   620  007E85  CCDA               	dw	52442
   621  007E87  CC22               	dw	52258
   622  007E89  CB6A               	dw	52074
   623  007E8B  CAB3               	dw	51891
   624  007E8D  C9FD               	dw	51709
   625  007E8F  C947               	dw	51527
   626  007E91  C891               	dw	51345
   627  007E93  C7DC               	dw	51164
   628  007E95  C728               	dw	50984
   629  007E97  C674               	dw	50804
   630  007E99  C5C1               	dw	50625
   631  007E9B  C50E               	dw	50446
   632  007E9D  C45C               	dw	50268
   633  007E9F  C3AA               	dw	50090
   634  007EA1  C2F9               	dw	49913
   635  007EA3  C249               	dw	49737
   636  007EA5  C199               	dw	49561
   637  007EA7  C0EA               	dw	49386
   638  007EA9  C03B               	dw	49211
   639  007EAB  BF8D               	dw	49037
   640  007EAD  BEE0               	dw	48864
   641  007EAF  BE33               	dw	48691
   642  007EB1  BD87               	dw	48519
   643  007EB3  BCDB               	dw	48347
   644  007EB5  BC30               	dw	48176
   645  007EB7  BB86               	dw	48006
   646  007EB9  BADD               	dw	47837
   647  007EBB  BA34               	dw	47668
   648  007EBD  B98C               	dw	47500
   649  007EBF  B8E4               	dw	47332
   650  007EC1  B83D               	dw	47165
   651  007EC3  B797               	dw	46999
   652  007EC5  B6F2               	dw	46834
   653  007EC7  B64D               	dw	46669
   654  007EC9  B5A9               	dw	46505
   655  007ECB  B506               	dw	46342
   656  007ECD  B463               	dw	46179
   657  007ECF  B3C1               	dw	46017
   658  007ED1  B320               	dw	45856
   659  007ED3  B280               	dw	45696
   660  007ED5  B1E0               	dw	45536
   661  007ED7  B141               	dw	45377
   662  007ED9  B0A3               	dw	45219
   663  007EDB  B006               	dw	45062
   664  007EDD  AF69               	dw	44905
   665  007EDF  AECD               	dw	44749
   666  007EE1  AE32               	dw	44594
   667  007EE3  AD98               	dw	44440
   668  007EE5  ACFF               	dw	44287
   669  007EE7  AC66               	dw	44134
   670  007EE9  ABCE               	dw	43982
   671  007EEB  AB37               	dw	43831
   672  007EED  AAA1               	dw	43681
   673  007EEF  AA0C               	dw	43532
   674  007EF1  A977               	dw	43383
   675  007EF3  A8E3               	dw	43235
   676  007EF5  A850               	dw	43088
   677  007EF7  A7BE               	dw	42942
   678  007EF9  A72D               	dw	42797
   679  007EFB  A69D               	dw	42653
   680  007EFD  A60D               	dw	42509
   681  007EFF  A57F               	dw	42367
   682  007F01  A4F1               	dw	42225
   683  007F03  A464               	dw	42084
   684  007F05  A3D8               	dw	41944
   685  007F07  A34D               	dw	41805
   686  007F09  A2C3               	dw	41667
   687  007F0B  A23A               	dw	41530
   688  007F0D  A1B1               	dw	41393
   689  007F0F  A12A               	dw	41258
   690  007F11  A0A3               	dw	41123
   691  007F13  A01E               	dw	40990
   692  007F15  9F99               	dw	40857
   693  007F17  9F15               	dw	40725
   694  007F19  9E92               	dw	40594
   695  007F1B  9E10               	dw	40464
   696  007F1D  9D8F               	dw	40335
   697  007F1F  9D0F               	dw	40207
   698  007F21  9C90               	dw	40080
   699  007F23  9C12               	dw	39954
   700  007F25  9B95               	dw	39829
   701  007F27  9B19               	dw	39705
   702  007F29  9A9E               	dw	39582
   703  007F2B  9A23               	dw	39459
   704  007F2D  99AA               	dw	39338
   705  007F2F  9932               	dw	39218
   706  007F31  98BB               	dw	39099
   707  007F33  9844               	dw	38980
   708  007F35  97CF               	dw	38863
   709  007F37  975B               	dw	38747
   710  007F39  96E7               	dw	38631
   711  007F3B  9675               	dw	38517
   712  007F3D  9604               	dw	38404
   713  007F3F  9594               	dw	38292
   714  007F41  9525               	dw	38181
   715  007F43  94B6               	dw	38070
   716  007F45  9449               	dw	37961
   717  007F47  93DD               	dw	37853
   718  007F49  9372               	dw	37746
   719  007F4B  9308               	dw	37640
   720  007F4D  929F               	dw	37535
   721  007F4F  9237               	dw	37431
   722  007F51  91D0               	dw	37328
   723  007F53  916B               	dw	37227
   724  007F55  9106               	dw	37126
   725  007F57  90A2               	dw	37026
   726  007F59  9040               	dw	36928
   727  007F5B  8FDE               	dw	36830
   728  007F5D  8F7E               	dw	36734
   729  007F5F  8F1F               	dw	36639
   730  007F61  8EC0               	dw	36544
   731  007F63  8E63               	dw	36451
   732  007F65  8E07               	dw	36359
   733  007F67  8DAC               	dw	36268
   734  007F69  8D52               	dw	36178
   735  007F6B  8CFA               	dw	36090
   736  007F6D  8CA2               	dw	36002
   737  007F6F  8C4B               	dw	35915
   738  007F71  8BF6               	dw	35830
   739  007F73  8BA2               	dw	35746
   740  007F75  8B4F               	dw	35663
   741  007F77  8AFD               	dw	35581
   742  007F79  8AAC               	dw	35500
   743  007F7B  8A5C               	dw	35420
   744  007F7D  8A0D               	dw	35341
   745  007F7F  89C0               	dw	35264
   746  007F81  8973               	dw	35187
   747  007F83  8928               	dw	35112
   748  007F85  88DE               	dw	35038
   749  007F87  8895               	dw	34965
   750  007F89  884D               	dw	34893
   751  007F8B  8807               	dw	34823
   752  007F8D  87C1               	dw	34753
   753  007F8F  877D               	dw	34685
   754  007F91  873A               	dw	34618
   755  007F93  86F8               	dw	34552
   756  007F95  86B7               	dw	34487
   757  007F97  8677               	dw	34423
   758  007F99  8639               	dw	34361
   759  007F9B  85FC               	dw	34300
   760  007F9D  85BF               	dw	34239
   761  007F9F  8584               	dw	34180
   762  007FA1  854B               	dw	34123
   763  007FA3  8512               	dw	34066
   764  007FA5  84DB               	dw	34011
   765  007FA7  84A4               	dw	33956
   766  007FA9  846F               	dw	33903
   767  007FAB  843C               	dw	33852
   768  007FAD  8409               	dw	33801
   769  007FAF  83D7               	dw	33751
   770  007FB1  83A7               	dw	33703
   771  007FB3  8378               	dw	33656
   772  007FB5  834A               	dw	33610
   773  007FB7  831E               	dw	33566
   774  007FB9  82F2               	dw	33522
   775  007FBB  82C8               	dw	33480
   776  007FBD  829F               	dw	33439
   777  007FBF  8277               	dw	33399
   778  007FC1  8250               	dw	33360
   779  007FC3  822B               	dw	33323
   780  007FC5  8207               	dw	33287
   781  007FC7  81E4               	dw	33252
   782  007FC9  81C2               	dw	33218
   783  007FCB  81A2               	dw	33186
   784  007FCD  8182               	dw	33154
   785  007FCF  8164               	dw	33124
   786  007FD1  8147               	dw	33095
   787  007FD3  812C               	dw	33068
   788  007FD5  8111               	dw	33041
   789  007FD7  80F8               	dw	33016
   790  007FD9  80E0               	dw	32992
   791  007FDB  80C9               	dw	32969
   792  007FDD  80B4               	dw	32948
   793  007FDF  809F               	dw	32927
   794  007FE1  808C               	dw	32908
   795  007FE3  807A               	dw	32890
   796  007FE5  806A               	dw	32874
   797  007FE7  805A               	dw	32858
   798  007FE9  804C               	dw	32844
   799  007FEB  803F               	dw	32831
   800  007FED  8033               	dw	32819
   801  007FEF  8029               	dw	32809
   802  007FF1  8020               	dw	32800
   803  007FF3  8018               	dw	32792
   804  007FF5  8011               	dw	32785
   805  007FF7  800B               	dw	32779
   806  007FF9  8007               	dw	32775
   807  007FFB  8004               	dw	32772
   808  007FFD  8002               	dw	32770
   809  007FFF                     __end_of_Sinewave:
   810                           	opt stack 0
   811  0000                     _ADCON0	set	4034
   812  0000                     _ADCON1	set	4033
   813  0000                     _ADCON2	set	4032
   814  0000                     _ADRESH	set	4036
   815  0000                     _ADRESL	set	4035
   816  0000                     _LATA	set	3977
   817  0000                     _LATB	set	3978
   818  0000                     _LATBbits	set	3978
   819  0000                     _LATC	set	3979
   820  0000                     _OSCCONbits	set	4051
   821  0000                     _OSCTUNEbits	set	3995
   822  0000                     _PORTA	set	3968
   823  0000                     _RCREG	set	4014
   824  0000                     _RCSTA1bits	set	4011
   825  0000                     _SPBRG	set	4015
   826  0000                     _TRISA	set	3986
   827  0000                     _TRISB	set	3987
   828  0000                     _TRISC	set	3988
   829  0000                     _TXREG	set	4013
   830  0000                     _TXSTA1bits	set	4012
   831  0000                     _TXSTA2bits	set	4026
   832  0000                     _GODONE	set	32273
   833  0000                     _RA1	set	31745
   834  0000                     _RA2	set	31746
   835  0000                     _RA3	set	31747
   836  0000                     _RCIF	set	31989
   837  0000                     _TRISC6	set	31910
   838  0000                     _TRISC7	set	31911
   839                           
   840                           ; #config settings
   841  007FFF  00                 	db	0	; dummy byte at the end
   842  0000                     
   843                           	psect	cinit
   844  0072E0                     __pcinit:
   845                           	opt stack 0
   846  0072E0                     start_initialization:
   847                           	opt stack 0
   848  0072E0                     __initialization:
   849                           	opt stack 0
   850                           
   851                           ; Clear objects allocated to BANK1 (128 bytes)
   852  0072E0  EE01  F000         	lfsr	0,__pbssBANK1
   853  0072E4  0E80               	movlw	128
   854  0072E6                     clear_0:
   855  0072E6  6AEE               	clrf	postinc0,c
   856  0072E8  06E8               	decf	wreg,f,c
   857  0072EA  E1FD               	bnz	clear_0
   858                           
   859                           ; Clear objects allocated to BANK0 (128 bytes)
   860  0072EC  EE00  F060         	lfsr	0,__pbssBANK0
   861  0072F0  0E80               	movlw	128
   862  0072F2                     clear_1:
   863  0072F2  6AEE               	clrf	postinc0,c
   864  0072F4  06E8               	decf	wreg,f,c
   865  0072F6  E1FD               	bnz	clear_1
   866                           
   867                           ; Clear objects allocated to COMRAM (2 bytes)
   868  0072F8  6A1E               	clrf	(__pbssCOMRAM+1)& (0+255),c
   869  0072FA  6A1D               	clrf	__pbssCOMRAM& (0+255),c
   870  0072FC                     end_of_initialization:
   871                           	opt stack 0
   872  0072FC                     __end_of__initialization:
   873                           	opt stack 0
   874  0072FC  0E00               	movlw	low (__Lmediumconst shr (0+16))
   875  0072FE  6EF8               	movwf	tblptru,c
   876  007300  0100               	movlb	0
   877  007302  EF58  F03C         	goto	_main	;jump to C main() function
   878                           tblptru	equ	0xFF8
   879                           postinc0	equ	0xFEE
   880                           wreg	equ	0xFE8
   881                           
   882                           	psect	bssCOMRAM
   883  00001D                     __pbssCOMRAM:
   884                           	opt stack 0
   885  00001D                     _var:
   886                           	opt stack 0
   887  00001D                     	ds	2
   888                           tblptru	equ	0xFF8
   889                           postinc0	equ	0xFEE
   890                           wreg	equ	0xFE8
   891                           
   892                           	psect	bssBANK0
   893  000060                     __pbssBANK0:
   894                           	opt stack 0
   895  000060                     _realNumbers:
   896                           	opt stack 0
   897  000060                     	ds	128
   898                           tblptru	equ	0xFF8
   899                           postinc0	equ	0xFEE
   900                           wreg	equ	0xFE8
   901                           
   902                           	psect	bssBANK1
   903  000100                     __pbssBANK1:
   904                           	opt stack 0
   905  000100                     _imaginaryNumbers:
   906                           	opt stack 0
   907  000100                     	ds	128
   908                           tblptru	equ	0xFF8
   909                           postinc0	equ	0xFEE
   910                           wreg	equ	0xFE8
   911                           
   912                           	psect	cstackCOMRAM
   913  000001                     __pcstackCOMRAM:
   914                           	opt stack 0
   915  000001                     ?___aldiv:
   916                           	opt stack 0
   917  000001                     SetAllRGB@green:
   918                           	opt stack 0
   919  000001                     DelayMs@x:
   920                           	opt stack 0
   921  000001                     WS2812Write@var:
   922                           	opt stack 0
   923  000001                     writePinMain@pinChoice:
   924                           	opt stack 0
   925  000001                     ___aldiv@dividend:
   926                           	opt stack 0
   927                           
   928                           ; 4 bytes @ 0x0
   929  000001                     	ds	1
   930  000002                     SetAllRGB@blue:
   931                           	opt stack 0
   932                           
   933                           ; 1 bytes @ 0x1
   934  000002                     	ds	1
   935  000003                     ??_writePinMain:
   936  000003                     ??_DelayMs:
   937  000003                     SetAllRGB@red:
   938                           	opt stack 0
   939                           
   940                           ; 1 bytes @ 0x2
   941  000003                     	ds	1
   942  000004                     DelayMs@i:
   943                           	opt stack 0
   944  000004                     SetAllRGB@i:
   945                           	opt stack 0
   946                           
   947                           ; 2 bytes @ 0x3
   948  000004                     	ds	1
   949  000005                     ___aldiv@divisor:
   950                           	opt stack 0
   951                           
   952                           ; 4 bytes @ 0x4
   953  000005                     	ds	1
   954  000006                     SetAllRGB@idx:
   955                           	opt stack 0
   956                           
   957                           ; 1 bytes @ 0x5
   958  000006                     	ds	3
   959  000009                     ___aldiv@counter:
   960                           	opt stack 0
   961                           
   962                           ; 1 bytes @ 0x8
   963  000009                     	ds	1
   964  00000A                     ___aldiv@sign:
   965                           	opt stack 0
   966                           
   967                           ; 1 bytes @ 0x9
   968  00000A                     	ds	1
   969  00000B                     ___aldiv@quotient:
   970                           	opt stack 0
   971                           
   972                           ; 4 bytes @ 0xA
   973  00000B                     	ds	4
   974  00000F                     UART_Init@baudrate:
   975                           	opt stack 0
   976                           
   977                           ; 4 bytes @ 0xE
   978  00000F                     	ds	4
   979  000013                     ??_UART_Init:
   980                           
   981                           ; 0 bytes @ 0x12
   982  000013                     	ds	8
   983  00001B                     UART_Init@x:
   984                           	opt stack 0
   985                           
   986                           ; 2 bytes @ 0x1A
   987  00001B                     	ds	2
   988  00001D                     tblptru	equ	0xFF8
   989                           postinc0	equ	0xFEE
   990                           wreg	equ	0xFE8
   991                           
   992                           ; 0 bytes @ 0x1C
   993 ;;
   994 ;;Main: autosize = 0, tempsize = 0, incstack = 0, save=0
   995 ;;
   996 ;; *************** function _main *****************
   997 ;; Defined at:
   998 ;;		line 19 in file "main.c"
   999 ;; Parameters:    Size  Location     Type
  1000 ;;		None
  1001 ;; Auto vars:     Size  Location     Type
  1002 ;;		None
  1003 ;; Return value:  Size  Location     Type
  1004 ;;		None               void
  1005 ;; Registers used:
  1006 ;;		wreg, fsr2l, fsr2h, status,2, status,0, prodl, prodh, cstack
  1007 ;; Tracked objects:
  1008 ;;		On entry : 0/0
  1009 ;;		On exit  : 0/0
  1010 ;;		Unchanged: 0/0
  1011 ;; Data sizes:     COMRAM   BANK0   BANK1   BANK2   BANK3   BANK4   BANK5   BANK6   BANK7   BANK8   BANK9  BANK10  BANK1
      +1  BANK12  BANK13  BANK14
  1012 ;;      Params:         0       0       0       0       0       0       0       0       0       0       0       0       
      +0       0       0       0
  1013 ;;      Locals:         0       0       0       0       0       0       0       0       0       0       0       0       
      +0       0       0       0
  1014 ;;      Temps:          0       0       0       0       0       0       0       0       0       0       0       0       
      +0       0       0       0
  1015 ;;      Totals:         0       0       0       0       0       0       0       0       0       0       0       0       
      +0       0       0       0
  1016 ;;Total ram usage:        0 bytes
  1017 ;; Hardware stack levels required when called:    2
  1018 ;; This function calls:
  1019 ;;		_DelayMs
  1020 ;;		_SetAllRGB
  1021 ;;		_UART_Data_Ready
  1022 ;;		_UART_Init
  1023 ;;		_UART_Read
  1024 ;;		_WS2812Write
  1025 ;;		_writePinMain
  1026 ;; This function is called by:
  1027 ;;		Startup code after reset
  1028 ;; This function uses a non-reentrant model
  1029 ;;
  1030                           
  1031                           	psect	text0
  1032  0078B0                     __ptext0:
  1033                           	opt stack 0
  1034  0078B0                     _main:
  1035                           	opt stack 29
  1036                           
  1037                           ;main.c: 21: OSCTUNEbits.PLLEN=1;
  1038                           
  1039                           ;incstack = 0
  1040  0078B0  8C9B               	bsf	3995,6,c	;volatile
  1041                           
  1042                           ;main.c: 22: OSCCONbits.IRCF = 0b111;
  1043  0078B2  88D3               	bsf	4051,4,c	;volatile
  1044  0078B4  8AD3               	bsf	4051,5,c	;volatile
  1045  0078B6  8CD3               	bsf	4051,6,c	;volatile
  1046                           
  1047                           ;main.c: 25: UART_Init(9600);
  1048  0078B8  0E80               	movlw	128
  1049  0078BA  6E0F               	movwf	UART_Init@baudrate,c
  1050  0078BC  0E25               	movlw	37
  1051  0078BE  6E10               	movwf	UART_Init@baudrate+1,c
  1052  0078C0  0E00               	movlw	0
  1053  0078C2  6E11               	movwf	UART_Init@baudrate+2,c
  1054  0078C4  0E00               	movlw	0
  1055  0078C6  6E12               	movwf	UART_Init@baudrate+3,c
  1056  0078C8  ECC0  F03B         	call	_UART_Init	;wreg free
  1057                           
  1058                           ;main.c: 36: ADCON1 = 0b00001110;
  1059  0078CC  0E0E               	movlw	14
  1060  0078CE  6EC1               	movwf	4033,c	;volatile
  1061                           
  1062                           ;main.c: 39: ADCON2 = 0b10110110;
  1063  0078D0  0EB6               	movlw	182
  1064  0078D2  6EC0               	movwf	4032,c	;volatile
  1065                           
  1066                           ;main.c: 43: LATA = 0b00000000;
  1067  0078D4  0E00               	movlw	0
  1068  0078D6  6E89               	movwf	3977,c	;volatile
  1069                           
  1070                           ;main.c: 44: LATB = 0b00000000;
  1071  0078D8  0E00               	movlw	0
  1072  0078DA  6E8A               	movwf	3978,c	;volatile
  1073                           
  1074                           ;main.c: 45: LATC = 0b00000000;
  1075  0078DC  0E00               	movlw	0
  1076  0078DE  6E8B               	movwf	3979,c	;volatile
  1077                           
  1078                           ;main.c: 47: TRISA = 0b00000000;
  1079  0078E0  0E00               	movlw	0
  1080  0078E2  6E92               	movwf	3986,c	;volatile
  1081                           
  1082                           ;main.c: 48: TRISB = 0b00000000;
  1083  0078E4  0E00               	movlw	0
  1084  0078E6  6E93               	movwf	3987,c	;volatile
  1085                           
  1086                           ;main.c: 49: TRISC = 0b00000000;
  1087  0078E8  0E00               	movlw	0
  1088  0078EA  6E94               	movwf	3988,c	;volatile
  1089                           
  1090                           ;main.c: 52: SetAllRGB(0,0,0);
  1091  0078EC  0E00               	movlw	0
  1092  0078EE  6E01               	movwf	SetAllRGB@green,c
  1093  0078F0  0E00               	movlw	0
  1094  0078F2  6E02               	movwf	SetAllRGB@blue,c
  1095  0078F4  0E00               	movlw	0
  1096  0078F6  ECE1  F03A         	call	_SetAllRGB
  1097                           
  1098                           ;main.c: 53: WS2812Write();
  1099  0078FA  EC67  F039         	call	_WS2812Write	;wreg free
  1100                           
  1101                           ;main.c: 54: writePinMain(0);
  1102  0078FE  0E00               	movlw	0
  1103  007900  6E02               	movwf	writePinMain@pinChoice+1,c
  1104  007902  0E00               	movlw	0
  1105  007904  6E01               	movwf	writePinMain@pinChoice,c
  1106  007906  EC18  F03B         	call	_writePinMain	;wreg free
  1107                           
  1108                           ;main.c: 56: DelayMs(2000);
  1109  00790A  0E07               	movlw	7
  1110  00790C  6E02               	movwf	DelayMs@x+1,c
  1111  00790E  0ED0               	movlw	208
  1112  007910  6E01               	movwf	DelayMs@x,c
  1113  007912  EC83  F039         	call	_DelayMs	;wreg free
  1114  007916  D000               	goto	l1607
  1115  007918                     l1607:
  1116                           
  1117                           ;main.c: 62: if(UART_Data_Ready())
  1118  007918  EC5C  F039         	call	_UART_Data_Ready	;wreg free
  1119  00791C  0900               	iorlw	0
  1120  00791E  B4D8               	btfsc	status,2,c
  1121  007920  D004               	goto	l1611
  1122                           
  1123                           ;main.c: 63: {
  1124                           ;main.c: 65: PORTA = UART_Read();
  1125  007922  EC61  F039         	call	_UART_Read	;wreg free
  1126  007926  6E80               	movwf	3968,c	;volatile
  1127  007928  D000               	goto	l1611
  1128  00792A                     l1611:
  1129                           
  1130                           ;main.c: 66: }
  1131                           ;main.c: 67: DelayMs(100);
  1132  00792A  0E00               	movlw	0
  1133  00792C  6E02               	movwf	DelayMs@x+1,c
  1134  00792E  0E64               	movlw	100
  1135  007930  6E01               	movwf	DelayMs@x,c
  1136  007932  EC83  F039         	call	_DelayMs	;wreg free
  1137                           
  1138                           ;main.c: 68: }while(1);
  1139  007936  D7F0               	goto	l1607
  1140  007938  D000               	goto	l1613
  1141  00793A                     l1613:
  1142                           
  1143                           ;main.c: 83: SetAllRGB(100,0,100);
  1144  00793A  0E00               	movlw	0
  1145  00793C  6E01               	movwf	SetAllRGB@green,c
  1146  00793E  0E64               	movlw	100
  1147  007940  6E02               	movwf	SetAllRGB@blue,c
  1148  007942  0E64               	movlw	100
  1149  007944  ECE1  F03A         	call	_SetAllRGB
  1150                           
  1151                           ;main.c: 84: writePinMain(0);
  1152  007948  0E00               	movlw	0
  1153  00794A  6E02               	movwf	writePinMain@pinChoice+1,c
  1154  00794C  0E00               	movlw	0
  1155  00794E  6E01               	movwf	writePinMain@pinChoice,c
  1156  007950  EC18  F03B         	call	_writePinMain	;wreg free
  1157                           
  1158                           ;main.c: 86: DelayMs(5000);
  1159  007954  0E13               	movlw	19
  1160  007956  6E02               	movwf	DelayMs@x+1,c
  1161  007958  0E88               	movlw	136
  1162  00795A  6E01               	movwf	DelayMs@x,c
  1163  00795C  EC83  F039         	call	_DelayMs	;wreg free
  1164                           
  1165                           ;main.c: 88: SetAllRGB(255,128,0);
  1166  007960  0E80               	movlw	128
  1167  007962  6E01               	movwf	SetAllRGB@green,c
  1168  007964  0E00               	movlw	0
  1169  007966  6E02               	movwf	SetAllRGB@blue,c
  1170  007968  0EFF               	movlw	255
  1171  00796A  ECE1  F03A         	call	_SetAllRGB
  1172                           
  1173                           ;main.c: 89: writePinMain(1);
  1174  00796E  0E00               	movlw	0
  1175  007970  6E02               	movwf	writePinMain@pinChoice+1,c
  1176  007972  0E01               	movlw	1
  1177  007974  6E01               	movwf	writePinMain@pinChoice,c
  1178  007976  EC18  F03B         	call	_writePinMain	;wreg free
  1179                           
  1180                           ;main.c: 90: DelayMs(5000);
  1181  00797A  0E13               	movlw	19
  1182  00797C  6E02               	movwf	DelayMs@x+1,c
  1183  00797E  0E88               	movlw	136
  1184  007980  6E01               	movwf	DelayMs@x,c
  1185  007982  EC83  F039         	call	_DelayMs	;wreg free
  1186                           
  1187                           ;main.c: 93: SetAllRGB(255,0,0);
  1188  007986  0E00               	movlw	0
  1189  007988  6E01               	movwf	SetAllRGB@green,c
  1190  00798A  0E00               	movlw	0
  1191  00798C  6E02               	movwf	SetAllRGB@blue,c
  1192  00798E  0EFF               	movlw	255
  1193  007990  ECE1  F03A         	call	_SetAllRGB
  1194                           
  1195                           ;main.c: 94: writePinMain(2);
  1196  007994  0E00               	movlw	0
  1197  007996  6E02               	movwf	writePinMain@pinChoice+1,c
  1198  007998  0E02               	movlw	2
  1199  00799A  6E01               	movwf	writePinMain@pinChoice,c
  1200  00799C  EC18  F03B         	call	_writePinMain	;wreg free
  1201                           
  1202                           ;main.c: 95: DelayMs(5000);
  1203  0079A0  0E13               	movlw	19
  1204  0079A2  6E02               	movwf	DelayMs@x+1,c
  1205  0079A4  0E88               	movlw	136
  1206  0079A6  6E01               	movwf	DelayMs@x,c
  1207  0079A8  EC83  F039         	call	_DelayMs	;wreg free
  1208                           
  1209                           ;main.c: 98: SetAllRGB(0,0,255);
  1210  0079AC  0E00               	movlw	0
  1211  0079AE  6E01               	movwf	SetAllRGB@green,c
  1212  0079B0  0EFF               	movlw	255
  1213  0079B2  6E02               	movwf	SetAllRGB@blue,c
  1214  0079B4  0E00               	movlw	0
  1215  0079B6  ECE1  F03A         	call	_SetAllRGB
  1216                           
  1217                           ;main.c: 99: writePinMain(3);
  1218  0079BA  0E00               	movlw	0
  1219  0079BC  6E02               	movwf	writePinMain@pinChoice+1,c
  1220  0079BE  0E03               	movlw	3
  1221  0079C0  6E01               	movwf	writePinMain@pinChoice,c
  1222  0079C2  EC18  F03B         	call	_writePinMain	;wreg free
  1223                           
  1224                           ;main.c: 100: DelayMs(5000);
  1225  0079C6  0E13               	movlw	19
  1226  0079C8  6E02               	movwf	DelayMs@x+1,c
  1227  0079CA  0E88               	movlw	136
  1228  0079CC  6E01               	movwf	DelayMs@x,c
  1229  0079CE  EC83  F039         	call	_DelayMs	;wreg free
  1230                           
  1231                           ;main.c: 103: SetAllRGB(0,200,200);
  1232  0079D2  0EC8               	movlw	200
  1233  0079D4  6E01               	movwf	SetAllRGB@green,c
  1234  0079D6  0EC8               	movlw	200
  1235  0079D8  6E02               	movwf	SetAllRGB@blue,c
  1236  0079DA  0E00               	movlw	0
  1237  0079DC  ECE1  F03A         	call	_SetAllRGB
  1238                           
  1239                           ;main.c: 104: writePinMain(4);
  1240  0079E0  0E00               	movlw	0
  1241  0079E2  6E02               	movwf	writePinMain@pinChoice+1,c
  1242  0079E4  0E04               	movlw	4
  1243  0079E6  6E01               	movwf	writePinMain@pinChoice,c
  1244  0079E8  EC18  F03B         	call	_writePinMain	;wreg free
  1245                           
  1246                           ;main.c: 105: DelayMs(5000);
  1247  0079EC  0E13               	movlw	19
  1248  0079EE  6E02               	movwf	DelayMs@x+1,c
  1249  0079F0  0E88               	movlw	136
  1250  0079F2  6E01               	movwf	DelayMs@x,c
  1251  0079F4  EC83  F039         	call	_DelayMs	;wreg free
  1252                           
  1253                           ;main.c: 157: } while (1);
  1254  0079F8  D7A0               	goto	l1613
  1255  0079FA  EF00  F000         	goto	start
  1256  0079FE                     __end_of_main:
  1257                           	opt stack 0
  1258                           tblptru	equ	0xFF8
  1259                           postinc0	equ	0xFEE
  1260                           wreg	equ	0xFE8
  1261                           status	equ	0xFD8
  1262                           
  1263 ;; *************** function _writePinMain *****************
  1264 ;; Defined at:
  1265 ;;		line 8 in file "assemblers.c"
  1266 ;; Parameters:    Size  Location     Type
  1267 ;;  pinChoice       2    0[COMRAM] int 
  1268 ;; Auto vars:     Size  Location     Type
  1269 ;;		None
  1270 ;; Return value:  Size  Location     Type
  1271 ;;		None               void
  1272 ;; Registers used:
  1273 ;;		wreg, status,2, status,0, cstack
  1274 ;; Tracked objects:
  1275 ;;		On entry : 0/0
  1276 ;;		On exit  : 0/0
  1277 ;;		Unchanged: 0/0
  1278 ;; Data sizes:     COMRAM   BANK0   BANK1   BANK2   BANK3   BANK4   BANK5   BANK6   BANK7   BANK8   BANK9  BANK10  BANK1
      +1  BANK12  BANK13  BANK14
  1279 ;;      Params:         2       0       0       0       0       0       0       0       0       0       0       0       
      +0       0       0       0
  1280 ;;      Locals:         0       0       0       0       0       0       0       0       0       0       0       0       
      +0       0       0       0
  1281 ;;      Temps:          2       0       0       0       0       0       0       0       0       0       0       0       
      +0       0       0       0
  1282 ;;      Totals:         4       0       0       0       0       0       0       0       0       0       0       0       
      +0       0       0       0
  1283 ;;Total ram usage:        4 bytes
  1284 ;; Hardware stack levels used:    1
  1285 ;; Hardware stack levels required when called:    1
  1286 ;; This function calls:
  1287 ;;		_writePin0
  1288 ;;		_writePin1
  1289 ;;		_writePin2
  1290 ;;		_writePin3
  1291 ;;		_writePin4
  1292 ;;		_writePin5
  1293 ;;		_writePin6
  1294 ;;		_writePin7
  1295 ;; This function is called by:
  1296 ;;		_main
  1297 ;; This function uses a non-reentrant model
  1298 ;;
  1299                           
  1300                           	psect	text1
  1301  007630                     __ptext1:
  1302                           	opt stack 0
  1303  007630                     _writePinMain:
  1304                           	opt stack 29
  1305                           
  1306                           ;assemblers.c: 10: switch(pinChoice){
  1307                           
  1308                           ;incstack = 0
  1309  007630  D018               	goto	l1469
  1310  007632                     l1451:
  1311  007632  ECC2  F039         	call	_writePin1	;wreg free
  1312  007636  0012               	return	
  1313  007638                     l1453:
  1314  007638  ECEB  F039         	call	_writePin2	;wreg free
  1315  00763C  0012               	return	
  1316  00763E                     l1455:
  1317  00763E  EC14  F03A         	call	_writePin3	;wreg free
  1318  007642  0012               	return	
  1319  007644                     l1457:
  1320  007644  EC3D  F03A         	call	_writePin4	;wreg free
  1321  007648  0012               	return	
  1322  00764A                     l1459:
  1323  00764A  EC66  F03A         	call	_writePin5	;wreg free
  1324  00764E  0012               	return	
  1325  007650                     l1461:
  1326  007650  EC8F  F03A         	call	_writePin6	;wreg free
  1327  007654  0012               	return	
  1328  007656                     l1463:
  1329  007656  ECB8  F03A         	call	_writePin7	;wreg free
  1330  00765A  0012               	return	
  1331  00765C                     l1465:
  1332  00765C  EC99  F039         	call	_writePin0	;wreg free
  1333                           
  1334                           ;assemblers.c: 19: }
  1335  007660  0012               	return	
  1336  007662                     l1469:
  1337  007662  C001  F003         	movff	writePinMain@pinChoice,??_writePinMain
  1338  007666  C002  F004         	movff	writePinMain@pinChoice+1,??_writePinMain+1
  1339                           
  1340                           ; Switch on 2 bytes has been partitioned into a top level switch of size 1, and 1 sub-sw
      +                          itches
  1341                           ; Switch size 1, requested type "space"
  1342                           ; Number of cases is 1, Range of values is 0 to 0
  1343                           ; switch strategies available:
  1344                           ; Name         Instructions Cycles
  1345                           ; simple_byte            4     3 (average)
  1346                           ;	Chosen strategy is simple_byte
  1347  00766A  5004               	movf	??_writePinMain+1,w,c
  1348  00766C  0A00               	xorlw	0	; case 0
  1349  00766E  A4D8               	btfss	status,2,c
  1350  007670  D7F5               	goto	l1465
  1351                           
  1352                           ; Switch size 1, requested type "space"
  1353                           ; Number of cases is 7, Range of values is 1 to 7
  1354                           ; switch strategies available:
  1355                           ; Name         Instructions Cycles
  1356                           ; simple_byte           22    12 (average)
  1357                           ;	Chosen strategy is simple_byte
  1358  007672  5003               	movf	??_writePinMain,w,c
  1359  007674  0A01               	xorlw	1	; case 1
  1360  007676  B4D8               	btfsc	status,2,c
  1361  007678  D7DC               	goto	l1451
  1362  00767A  0A03               	xorlw	3	; case 2
  1363  00767C  B4D8               	btfsc	status,2,c
  1364  00767E  D7DC               	goto	l1453
  1365  007680  0A01               	xorlw	1	; case 3
  1366  007682  B4D8               	btfsc	status,2,c
  1367  007684  D7DC               	goto	l1455
  1368  007686  0A07               	xorlw	7	; case 4
  1369  007688  B4D8               	btfsc	status,2,c
  1370  00768A  D7DC               	goto	l1457
  1371  00768C  0A01               	xorlw	1	; case 5
  1372  00768E  B4D8               	btfsc	status,2,c
  1373  007690  D7DC               	goto	l1459
  1374  007692  0A03               	xorlw	3	; case 6
  1375  007694  B4D8               	btfsc	status,2,c
  1376  007696  D7DC               	goto	l1461
  1377  007698  0A01               	xorlw	1	; case 7
  1378  00769A  B4D8               	btfsc	status,2,c
  1379  00769C  D7DC               	goto	l1463
  1380  00769E  D7DE               	goto	l1465
  1381  0076A0  0012               	return		;funcret
  1382  0076A2                     __end_of_writePinMain:
  1383                           	opt stack 0
  1384                           tblptru	equ	0xFF8
  1385                           postinc0	equ	0xFEE
  1386                           wreg	equ	0xFE8
  1387                           status	equ	0xFD8
  1388                           
  1389 ;; *************** function _writePin7 *****************
  1390 ;; Defined at:
  1391 ;;		line 442 in file "assemblers.c"
  1392 ;; Parameters:    Size  Location     Type
  1393 ;;		None
  1394 ;; Auto vars:     Size  Location     Type
  1395 ;;		None
  1396 ;; Return value:  Size  Location     Type
  1397 ;;		None               void
  1398 ;; Registers used:
  1399 ;;		wreg
  1400 ;; Tracked objects:
  1401 ;;		On entry : 0/0
  1402 ;;		On exit  : 0/0
  1403 ;;		Unchanged: 0/0
  1404 ;; Data sizes:     COMRAM   BANK0   BANK1   BANK2   BANK3   BANK4   BANK5   BANK6   BANK7   BANK8   BANK9  BANK10  BANK1
      +1  BANK12  BANK13  BANK14
  1405 ;;      Params:         0       0       0       0       0       0       0       0       0       0       0       0       
      +0       0       0       0
  1406 ;;      Locals:         0       0       0       0       0       0       0       0       0       0       0       0       
      +0       0       0       0
  1407 ;;      Temps:          0       0       0       0       0       0       0       0       0       0       0       0       
      +0       0       0       0
  1408 ;;      Totals:         0       0       0       0       0       0       0       0       0       0       0       0       
      +0       0       0       0
  1409 ;;Total ram usage:        0 bytes
  1410 ;; Hardware stack levels used:    1
  1411 ;; This function calls:
  1412 ;;		Nothing
  1413 ;; This function is called by:
  1414 ;;		_writePinMain
  1415 ;; This function uses a non-reentrant model
  1416 ;;
  1417                           
  1418                           	psect	text2
  1419  007570                     __ptext2:
  1420                           	opt stack 0
  1421  007570                     _writePin7:
  1422                           	opt stack 29
  1423                           
  1424                           ;assemblers.c: 445: LATBbits.LB0 = 0;
  1425                           
  1426                           ;incstack = 0
  1427  007570  908A               	bcf	3978,0,c	;volatile
  1428                           
  1429                           ;assemblers.c: 446: _delay((unsigned long)((50)*(48000000/4000000.0)));
  1430  007572  0EC8               	movlw	200
  1431  007574                     u957:
  1432  007574  2EE8               	decfsz	wreg,f,c
  1433  007576  D7FE               	goto	u957
  1434  007578  010C               	movlb	high _tmpData	;# 
  1435  00757A  0EF0               	movlw	240	;# 
  1436  00757C  6F02               	movwf	_ledCount& (0+255),b	;# 
  1437  00757E  EE0C  F003         	lfsr	0,_ledData	;# 
  1438  007582                     byteLoop7:
  1439  007582  50EE               	movf	postinc0,w,c	;# 
  1440  007584  6F00               	movwf	_tmpData& (0+255),b	;# 
  1441  007586  0E08               	movlw	8	; ;# 
  1442  007588  6F01               	movwf	_bitCount& (0+255),b	;# 
  1443  00758A                     bitLoop7:
  1444  00758A  8E8A               	bsf	3978,7,c	;# 
  1445  00758C  AF00               	btfss	_tmpData& (0+255),7,b	;# 
  1446  00758E  D00C               	bra	writeZero7	;# 
  1447  007590  4700               	rlncf	_tmpData& (0+255),f,b	;# 
  1448  007592  F000               	nop		;# 
  1449  007594  F000               	nop		;# 
  1450  007596  F000               	nop		;# 
  1451  007598  F000               	nop		;# 
  1452  00759A  F000               	nop		;# 
  1453  00759C  F000               	nop		;# 
  1454  00759E  F000               	nop		;# 
  1455  0075A0  9E8A               	bcf	3978,7,c	;# 
  1456  0075A2  2F01               	decfsz	_bitCount& (0+255),f,b	;# 
  1457  0075A4  D7F2               	bra	bitLoop7	;# 
  1458  0075A6  D00A               	bra	endByte7	;# 
  1459  0075A8                     writeZero7:
  1460  0075A8  9E8A               	bcf	3978,7,c	;# 
  1461  0075AA  4700               	rlncf	_tmpData& (0+255),f,b	;# 
  1462  0075AC  F000               	nop		;# 
  1463  0075AE  F000               	nop		;# 
  1464  0075B0  F000               	nop		;# 
  1465  0075B2  F000               	nop		;# 
  1466  0075B4  F000               	nop		;# 
  1467  0075B6  F000               	nop		;# 
  1468  0075B8  2F01               	decfsz	_bitCount& (0+255),f,b	;# 
  1469  0075BA  D7E7               	bra	bitLoop7	;# 
  1470  0075BC                     endByte7:
  1471  0075BC  2F02               	decfsz	_ledCount& (0+255),f,b	;# 
  1472  0075BE  D7E1               	bra	byteLoop7	;# 
  1473  0075C0  0012               	return		;funcret
  1474  0075C2                     __end_of_writePin7:
  1475                           	opt stack 0
  1476                           tblptru	equ	0xFF8
  1477                           postinc0	equ	0xFEE
  1478                           wreg	equ	0xFE8
  1479                           status	equ	0xFD8
  1480                           
  1481 ;; *************** function _writePin6 *****************
  1482 ;; Defined at:
  1483 ;;		line 382 in file "assemblers.c"
  1484 ;; Parameters:    Size  Location     Type
  1485 ;;		None
  1486 ;; Auto vars:     Size  Location     Type
  1487 ;;		None
  1488 ;; Return value:  Size  Location     Type
  1489 ;;		None               void
  1490 ;; Registers used:
  1491 ;;		wreg
  1492 ;; Tracked objects:
  1493 ;;		On entry : 0/0
  1494 ;;		On exit  : 0/0
  1495 ;;		Unchanged: 0/0
  1496 ;; Data sizes:     COMRAM   BANK0   BANK1   BANK2   BANK3   BANK4   BANK5   BANK6   BANK7   BANK8   BANK9  BANK10  BANK1
      +1  BANK12  BANK13  BANK14
  1497 ;;      Params:         0       0       0       0       0       0       0       0       0       0       0       0       
      +0       0       0       0
  1498 ;;      Locals:         0       0       0       0       0       0       0       0       0       0       0       0       
      +0       0       0       0
  1499 ;;      Temps:          0       0       0       0       0       0       0       0       0       0       0       0       
      +0       0       0       0
  1500 ;;      Totals:         0       0       0       0       0       0       0       0       0       0       0       0       
      +0       0       0       0
  1501 ;;Total ram usage:        0 bytes
  1502 ;; Hardware stack levels used:    1
  1503 ;; This function calls:
  1504 ;;		Nothing
  1505 ;; This function is called by:
  1506 ;;		_writePinMain
  1507 ;; This function uses a non-reentrant model
  1508 ;;
  1509                           
  1510                           	psect	text3
  1511  00751E                     __ptext3:
  1512                           	opt stack 0
  1513  00751E                     _writePin6:
  1514                           	opt stack 29
  1515                           
  1516                           ;assemblers.c: 385: LATBbits.LB0 = 0;
  1517                           
  1518                           ;incstack = 0
  1519  00751E  908A               	bcf	3978,0,c	;volatile
  1520                           
  1521                           ;assemblers.c: 386: _delay((unsigned long)((50)*(48000000/4000000.0)));
  1522  007520  0EC8               	movlw	200
  1523  007522                     u967:
  1524  007522  2EE8               	decfsz	wreg,f,c
  1525  007524  D7FE               	goto	u967
  1526  007526  010C               	movlb	high _tmpData	;# 
  1527  007528  0EF0               	movlw	240	;# 
  1528  00752A  6F02               	movwf	_ledCount& (0+255),b	;# 
  1529  00752C  EE0C  F003         	lfsr	0,_ledData	;# 
  1530  007530                     byteLoop6:
  1531  007530  50EE               	movf	postinc0,w,c	;# 
  1532  007532  6F00               	movwf	_tmpData& (0+255),b	;# 
  1533  007534  0E08               	movlw	8	; ;# 
  1534  007536  6F01               	movwf	_bitCount& (0+255),b	;# 
  1535  007538                     bitLoop6:
  1536  007538  8C8A               	bsf	3978,6,c	;# 
  1537  00753A  AF00               	btfss	_tmpData& (0+255),7,b	;# 
  1538  00753C  D00C               	bra	writeZero6	;# 
  1539  00753E  4700               	rlncf	_tmpData& (0+255),f,b	;# 
  1540  007540  F000               	nop		;# 
  1541  007542  F000               	nop		;# 
  1542  007544  F000               	nop		;# 
  1543  007546  F000               	nop		;# 
  1544  007548  F000               	nop		;# 
  1545  00754A  F000               	nop		;# 
  1546  00754C  F000               	nop		;# 
  1547  00754E  9C8A               	bcf	3978,6,c	;# 
  1548  007550  2F01               	decfsz	_bitCount& (0+255),f,b	;# 
  1549  007552  D7F2               	bra	bitLoop6	;# 
  1550  007554  D00A               	bra	endByte6	;# 
  1551  007556                     writeZero6:
  1552  007556  9C8A               	bcf	3978,6,c	;# 
  1553  007558  4700               	rlncf	_tmpData& (0+255),f,b	;# 
  1554  00755A  F000               	nop		;# 
  1555  00755C  F000               	nop		;# 
  1556  00755E  F000               	nop		;# 
  1557  007560  F000               	nop		;# 
  1558  007562  F000               	nop		;# 
  1559  007564  F000               	nop		;# 
  1560  007566  2F01               	decfsz	_bitCount& (0+255),f,b	;# 
  1561  007568  D7E7               	bra	bitLoop6	;# 
  1562  00756A                     endByte6:
  1563  00756A  2F02               	decfsz	_ledCount& (0+255),f,b	;# 
  1564  00756C  D7E1               	bra	byteLoop6	;# 
  1565  00756E  0012               	return		;funcret
  1566  007570                     __end_of_writePin6:
  1567                           	opt stack 0
  1568                           tblptru	equ	0xFF8
  1569                           postinc0	equ	0xFEE
  1570                           wreg	equ	0xFE8
  1571                           status	equ	0xFD8
  1572                           
  1573 ;; *************** function _writePin5 *****************
  1574 ;; Defined at:
  1575 ;;		line 322 in file "assemblers.c"
  1576 ;; Parameters:    Size  Location     Type
  1577 ;;		None
  1578 ;; Auto vars:     Size  Location     Type
  1579 ;;		None
  1580 ;; Return value:  Size  Location     Type
  1581 ;;		None               void
  1582 ;; Registers used:
  1583 ;;		wreg
  1584 ;; Tracked objects:
  1585 ;;		On entry : 0/0
  1586 ;;		On exit  : 0/0
  1587 ;;		Unchanged: 0/0
  1588 ;; Data sizes:     COMRAM   BANK0   BANK1   BANK2   BANK3   BANK4   BANK5   BANK6   BANK7   BANK8   BANK9  BANK10  BANK1
      +1  BANK12  BANK13  BANK14
  1589 ;;      Params:         0       0       0       0       0       0       0       0       0       0       0       0       
      +0       0       0       0
  1590 ;;      Locals:         0       0       0       0       0       0       0       0       0       0       0       0       
      +0       0       0       0
  1591 ;;      Temps:          0       0       0       0       0       0       0       0       0       0       0       0       
      +0       0       0       0
  1592 ;;      Totals:         0       0       0       0       0       0       0       0       0       0       0       0       
      +0       0       0       0
  1593 ;;Total ram usage:        0 bytes
  1594 ;; Hardware stack levels used:    1
  1595 ;; This function calls:
  1596 ;;		Nothing
  1597 ;; This function is called by:
  1598 ;;		_writePinMain
  1599 ;; This function uses a non-reentrant model
  1600 ;;
  1601                           
  1602                           	psect	text4
  1603  0074CC                     __ptext4:
  1604                           	opt stack 0
  1605  0074CC                     _writePin5:
  1606                           	opt stack 29
  1607                           
  1608                           ;assemblers.c: 325: LATBbits.LB0 = 0;
  1609                           
  1610                           ;incstack = 0
  1611  0074CC  908A               	bcf	3978,0,c	;volatile
  1612                           
  1613                           ;assemblers.c: 326: _delay((unsigned long)((50)*(48000000/4000000.0)));
  1614  0074CE  0EC8               	movlw	200
  1615  0074D0                     u977:
  1616  0074D0  2EE8               	decfsz	wreg,f,c
  1617  0074D2  D7FE               	goto	u977
  1618  0074D4  010C               	movlb	high _tmpData	;# 
  1619  0074D6  0EF0               	movlw	240	;# 
  1620  0074D8  6F02               	movwf	_ledCount& (0+255),b	;# 
  1621  0074DA  EE0C  F003         	lfsr	0,_ledData	;# 
  1622  0074DE                     byteLoop5:
  1623  0074DE  50EE               	movf	postinc0,w,c	;# 
  1624  0074E0  6F00               	movwf	_tmpData& (0+255),b	;# 
  1625  0074E2  0E08               	movlw	8	; ;# 
  1626  0074E4  6F01               	movwf	_bitCount& (0+255),b	;# 
  1627  0074E6                     bitLoop5:
  1628  0074E6  8A8A               	bsf	3978,5,c	;# 
  1629  0074E8  AF00               	btfss	_tmpData& (0+255),7,b	;# 
  1630  0074EA  D00C               	bra	writeZero5	;# 
  1631  0074EC  4700               	rlncf	_tmpData& (0+255),f,b	;# 
  1632  0074EE  F000               	nop		;# 
  1633  0074F0  F000               	nop		;# 
  1634  0074F2  F000               	nop		;# 
  1635  0074F4  F000               	nop		;# 
  1636  0074F6  F000               	nop		;# 
  1637  0074F8  F000               	nop		;# 
  1638  0074FA  F000               	nop		;# 
  1639  0074FC  9A8A               	bcf	3978,5,c	;# 
  1640  0074FE  2F01               	decfsz	_bitCount& (0+255),f,b	;# 
  1641  007500  D7F2               	bra	bitLoop5	;# 
  1642  007502  D00A               	bra	endByte5	;# 
  1643  007504                     writeZero5:
  1644  007504  9A8A               	bcf	3978,5,c	;# 
  1645  007506  4700               	rlncf	_tmpData& (0+255),f,b	;# 
  1646  007508  F000               	nop		;# 
  1647  00750A  F000               	nop		;# 
  1648  00750C  F000               	nop		;# 
  1649  00750E  F000               	nop		;# 
  1650  007510  F000               	nop		;# 
  1651  007512  F000               	nop		;# 
  1652  007514  2F01               	decfsz	_bitCount& (0+255),f,b	;# 
  1653  007516  D7E7               	bra	bitLoop5	;# 
  1654  007518                     endByte5:
  1655  007518  2F02               	decfsz	_ledCount& (0+255),f,b	;# 
  1656  00751A  D7E1               	bra	byteLoop5	;# 
  1657  00751C  0012               	return		;funcret
  1658  00751E                     __end_of_writePin5:
  1659                           	opt stack 0
  1660                           tblptru	equ	0xFF8
  1661                           postinc0	equ	0xFEE
  1662                           wreg	equ	0xFE8
  1663                           status	equ	0xFD8
  1664                           
  1665 ;; *************** function _writePin4 *****************
  1666 ;; Defined at:
  1667 ;;		line 262 in file "assemblers.c"
  1668 ;; Parameters:    Size  Location     Type
  1669 ;;		None
  1670 ;; Auto vars:     Size  Location     Type
  1671 ;;		None
  1672 ;; Return value:  Size  Location     Type
  1673 ;;		None               void
  1674 ;; Registers used:
  1675 ;;		wreg
  1676 ;; Tracked objects:
  1677 ;;		On entry : 0/0
  1678 ;;		On exit  : 0/0
  1679 ;;		Unchanged: 0/0
  1680 ;; Data sizes:     COMRAM   BANK0   BANK1   BANK2   BANK3   BANK4   BANK5   BANK6   BANK7   BANK8   BANK9  BANK10  BANK1
      +1  BANK12  BANK13  BANK14
  1681 ;;      Params:         0       0       0       0       0       0       0       0       0       0       0       0       
      +0       0       0       0
  1682 ;;      Locals:         0       0       0       0       0       0       0       0       0       0       0       0       
      +0       0       0       0
  1683 ;;      Temps:          0       0       0       0       0       0       0       0       0       0       0       0       
      +0       0       0       0
  1684 ;;      Totals:         0       0       0       0       0       0       0       0       0       0       0       0       
      +0       0       0       0
  1685 ;;Total ram usage:        0 bytes
  1686 ;; Hardware stack levels used:    1
  1687 ;; This function calls:
  1688 ;;		Nothing
  1689 ;; This function is called by:
  1690 ;;		_writePinMain
  1691 ;; This function uses a non-reentrant model
  1692 ;;
  1693                           
  1694                           	psect	text5
  1695  00747A                     __ptext5:
  1696                           	opt stack 0
  1697  00747A                     _writePin4:
  1698                           	opt stack 29
  1699                           
  1700                           ;assemblers.c: 265: LATBbits.LB0 = 0;
  1701                           
  1702                           ;incstack = 0
  1703  00747A  908A               	bcf	3978,0,c	;volatile
  1704                           
  1705                           ;assemblers.c: 266: _delay((unsigned long)((50)*(48000000/4000000.0)));
  1706  00747C  0EC8               	movlw	200
  1707  00747E                     u987:
  1708  00747E  2EE8               	decfsz	wreg,f,c
  1709  007480  D7FE               	goto	u987
  1710  007482  010C               	movlb	high _tmpData	;# 
  1711  007484  0EF0               	movlw	240	;# 
  1712  007486  6F02               	movwf	_ledCount& (0+255),b	;# 
  1713  007488  EE0C  F003         	lfsr	0,_ledData	;# 
  1714  00748C                     byteLoop4:
  1715  00748C  50EE               	movf	postinc0,w,c	;# 
  1716  00748E  6F00               	movwf	_tmpData& (0+255),b	;# 
  1717  007490  0E08               	movlw	8	; ;# 
  1718  007492  6F01               	movwf	_bitCount& (0+255),b	;# 
  1719  007494                     bitLoop4:
  1720  007494  888A               	bsf	3978,4,c	;# 
  1721  007496  AF00               	btfss	_tmpData& (0+255),7,b	;# 
  1722  007498  D00C               	bra	writeZero4	;# 
  1723  00749A  4700               	rlncf	_tmpData& (0+255),f,b	;# 
  1724  00749C  F000               	nop		;# 
  1725  00749E  F000               	nop		;# 
  1726  0074A0  F000               	nop		;# 
  1727  0074A2  F000               	nop		;# 
  1728  0074A4  F000               	nop		;# 
  1729  0074A6  F000               	nop		;# 
  1730  0074A8  F000               	nop		;# 
  1731  0074AA  988A               	bcf	3978,4,c	;# 
  1732  0074AC  2F01               	decfsz	_bitCount& (0+255),f,b	;# 
  1733  0074AE  D7F2               	bra	bitLoop4	;# 
  1734  0074B0  D00A               	bra	endByte4	;# 
  1735  0074B2                     writeZero4:
  1736  0074B2  988A               	bcf	3978,4,c	;# 
  1737  0074B4  4700               	rlncf	_tmpData& (0+255),f,b	;# 
  1738  0074B6  F000               	nop		;# 
  1739  0074B8  F000               	nop		;# 
  1740  0074BA  F000               	nop		;# 
  1741  0074BC  F000               	nop		;# 
  1742  0074BE  F000               	nop		;# 
  1743  0074C0  F000               	nop		;# 
  1744  0074C2  2F01               	decfsz	_bitCount& (0+255),f,b	;# 
  1745  0074C4  D7E7               	bra	bitLoop4	;# 
  1746  0074C6                     endByte4:
  1747  0074C6  2F02               	decfsz	_ledCount& (0+255),f,b	;# 
  1748  0074C8  D7E1               	bra	byteLoop4	;# 
  1749  0074CA  0012               	return		;funcret
  1750  0074CC                     __end_of_writePin4:
  1751                           	opt stack 0
  1752                           tblptru	equ	0xFF8
  1753                           postinc0	equ	0xFEE
  1754                           wreg	equ	0xFE8
  1755                           status	equ	0xFD8
  1756                           
  1757 ;; *************** function _writePin3 *****************
  1758 ;; Defined at:
  1759 ;;		line 202 in file "assemblers.c"
  1760 ;; Parameters:    Size  Location     Type
  1761 ;;		None
  1762 ;; Auto vars:     Size  Location     Type
  1763 ;;		None
  1764 ;; Return value:  Size  Location     Type
  1765 ;;		None               void
  1766 ;; Registers used:
  1767 ;;		wreg
  1768 ;; Tracked objects:
  1769 ;;		On entry : 0/0
  1770 ;;		On exit  : 0/0
  1771 ;;		Unchanged: 0/0
  1772 ;; Data sizes:     COMRAM   BANK0   BANK1   BANK2   BANK3   BANK4   BANK5   BANK6   BANK7   BANK8   BANK9  BANK10  BANK1
      +1  BANK12  BANK13  BANK14
  1773 ;;      Params:         0       0       0       0       0       0       0       0       0       0       0       0       
      +0       0       0       0
  1774 ;;      Locals:         0       0       0       0       0       0       0       0       0       0       0       0       
      +0       0       0       0
  1775 ;;      Temps:          0       0       0       0       0       0       0       0       0       0       0       0       
      +0       0       0       0
  1776 ;;      Totals:         0       0       0       0       0       0       0       0       0       0       0       0       
      +0       0       0       0
  1777 ;;Total ram usage:        0 bytes
  1778 ;; Hardware stack levels used:    1
  1779 ;; This function calls:
  1780 ;;		Nothing
  1781 ;; This function is called by:
  1782 ;;		_writePinMain
  1783 ;; This function uses a non-reentrant model
  1784 ;;
  1785                           
  1786                           	psect	text6
  1787  007428                     __ptext6:
  1788                           	opt stack 0
  1789  007428                     _writePin3:
  1790                           	opt stack 29
  1791                           
  1792                           ;assemblers.c: 205: LATBbits.LB0 = 0;
  1793                           
  1794                           ;incstack = 0
  1795  007428  908A               	bcf	3978,0,c	;volatile
  1796                           
  1797                           ;assemblers.c: 206: _delay((unsigned long)((50)*(48000000/4000000.0)));
  1798  00742A  0EC8               	movlw	200
  1799  00742C                     u997:
  1800  00742C  2EE8               	decfsz	wreg,f,c
  1801  00742E  D7FE               	goto	u997
  1802  007430  010C               	movlb	high _tmpData	;# 
  1803  007432  0EF0               	movlw	240	;# 
  1804  007434  6F02               	movwf	_ledCount& (0+255),b	;# 
  1805  007436  EE0C  F003         	lfsr	0,_ledData	;# 
  1806  00743A                     byteLoop3:
  1807  00743A  50EE               	movf	postinc0,w,c	;# 
  1808  00743C  6F00               	movwf	_tmpData& (0+255),b	;# 
  1809  00743E  0E08               	movlw	8	; ;# 
  1810  007440  6F01               	movwf	_bitCount& (0+255),b	;# 
  1811  007442                     bitLoop3:
  1812  007442  868A               	bsf	3978,3,c	;# 
  1813  007444  AF00               	btfss	_tmpData& (0+255),7,b	;# 
  1814  007446  D00C               	bra	writeZero3	;# 
  1815  007448  4700               	rlncf	_tmpData& (0+255),f,b	;# 
  1816  00744A  F000               	nop		;# 
  1817  00744C  F000               	nop		;# 
  1818  00744E  F000               	nop		;# 
  1819  007450  F000               	nop		;# 
  1820  007452  F000               	nop		;# 
  1821  007454  F000               	nop		;# 
  1822  007456  F000               	nop		;# 
  1823  007458  968A               	bcf	3978,3,c	;# 
  1824  00745A  2F01               	decfsz	_bitCount& (0+255),f,b	;# 
  1825  00745C  D7F2               	bra	bitLoop3	;# 
  1826  00745E  D00A               	bra	endByte3	;# 
  1827  007460                     writeZero3:
  1828  007460  968A               	bcf	3978,3,c	;# 
  1829  007462  4700               	rlncf	_tmpData& (0+255),f,b	;# 
  1830  007464  F000               	nop		;# 
  1831  007466  F000               	nop		;# 
  1832  007468  F000               	nop		;# 
  1833  00746A  F000               	nop		;# 
  1834  00746C  F000               	nop		;# 
  1835  00746E  F000               	nop		;# 
  1836  007470  2F01               	decfsz	_bitCount& (0+255),f,b	;# 
  1837  007472  D7E7               	bra	bitLoop3	;# 
  1838  007474                     endByte3:
  1839  007474  2F02               	decfsz	_ledCount& (0+255),f,b	;# 
  1840  007476  D7E1               	bra	byteLoop3	;# 
  1841  007478  0012               	return		;funcret
  1842  00747A                     __end_of_writePin3:
  1843                           	opt stack 0
  1844                           tblptru	equ	0xFF8
  1845                           postinc0	equ	0xFEE
  1846                           wreg	equ	0xFE8
  1847                           status	equ	0xFD8
  1848                           
  1849 ;; *************** function _writePin2 *****************
  1850 ;; Defined at:
  1851 ;;		line 142 in file "assemblers.c"
  1852 ;; Parameters:    Size  Location     Type
  1853 ;;		None
  1854 ;; Auto vars:     Size  Location     Type
  1855 ;;		None
  1856 ;; Return value:  Size  Location     Type
  1857 ;;		None               void
  1858 ;; Registers used:
  1859 ;;		wreg
  1860 ;; Tracked objects:
  1861 ;;		On entry : 0/0
  1862 ;;		On exit  : 0/0
  1863 ;;		Unchanged: 0/0
  1864 ;; Data sizes:     COMRAM   BANK0   BANK1   BANK2   BANK3   BANK4   BANK5   BANK6   BANK7   BANK8   BANK9  BANK10  BANK1
      +1  BANK12  BANK13  BANK14
  1865 ;;      Params:         0       0       0       0       0       0       0       0       0       0       0       0       
      +0       0       0       0
  1866 ;;      Locals:         0       0       0       0       0       0       0       0       0       0       0       0       
      +0       0       0       0
  1867 ;;      Temps:          0       0       0       0       0       0       0       0       0       0       0       0       
      +0       0       0       0
  1868 ;;      Totals:         0       0       0       0       0       0       0       0       0       0       0       0       
      +0       0       0       0
  1869 ;;Total ram usage:        0 bytes
  1870 ;; Hardware stack levels used:    1
  1871 ;; This function calls:
  1872 ;;		Nothing
  1873 ;; This function is called by:
  1874 ;;		_writePinMain
  1875 ;; This function uses a non-reentrant model
  1876 ;;
  1877                           
  1878                           	psect	text7
  1879  0073D6                     __ptext7:
  1880                           	opt stack 0
  1881  0073D6                     _writePin2:
  1882                           	opt stack 29
  1883                           
  1884                           ;assemblers.c: 145: LATBbits.LB0 = 0;
  1885                           
  1886                           ;incstack = 0
  1887  0073D6  908A               	bcf	3978,0,c	;volatile
  1888                           
  1889                           ;assemblers.c: 146: _delay((unsigned long)((50)*(48000000/4000000.0)));
  1890  0073D8  0EC8               	movlw	200
  1891  0073DA                     u1007:
  1892  0073DA  2EE8               	decfsz	wreg,f,c
  1893  0073DC  D7FE               	goto	u1007
  1894  0073DE  010C               	movlb	high _tmpData	;# 
  1895  0073E0  0EF0               	movlw	240	;# 
  1896  0073E2  6F02               	movwf	_ledCount& (0+255),b	;# 
  1897  0073E4  EE0C  F003         	lfsr	0,_ledData	;# 
  1898  0073E8                     byteLoop2:
  1899  0073E8  50EE               	movf	postinc0,w,c	;# 
  1900  0073EA  6F00               	movwf	_tmpData& (0+255),b	;# 
  1901  0073EC  0E08               	movlw	8	; ;# 
  1902  0073EE  6F01               	movwf	_bitCount& (0+255),b	;# 
  1903  0073F0                     bitLoop2:
  1904  0073F0  848A               	bsf	3978,2,c	;# 
  1905  0073F2  AF00               	btfss	_tmpData& (0+255),7,b	;# 
  1906  0073F4  D00C               	bra	writeZero2	;# 
  1907  0073F6  4700               	rlncf	_tmpData& (0+255),f,b	;# 
  1908  0073F8  F000               	nop		;# 
  1909  0073FA  F000               	nop		;# 
  1910  0073FC  F000               	nop		;# 
  1911  0073FE  F000               	nop		;# 
  1912  007400  F000               	nop		;# 
  1913  007402  F000               	nop		;# 
  1914  007404  F000               	nop		;# 
  1915  007406  948A               	bcf	3978,2,c	;# 
  1916  007408  2F01               	decfsz	_bitCount& (0+255),f,b	;# 
  1917  00740A  D7F2               	bra	bitLoop2	;# 
  1918  00740C  D00A               	bra	endByte2	;# 
  1919  00740E                     writeZero2:
  1920  00740E  948A               	bcf	3978,2,c	;# 
  1921  007410  4700               	rlncf	_tmpData& (0+255),f,b	;# 
  1922  007412  F000               	nop		;# 
  1923  007414  F000               	nop		;# 
  1924  007416  F000               	nop		;# 
  1925  007418  F000               	nop		;# 
  1926  00741A  F000               	nop		;# 
  1927  00741C  F000               	nop		;# 
  1928  00741E  2F01               	decfsz	_bitCount& (0+255),f,b	;# 
  1929  007420  D7E7               	bra	bitLoop2	;# 
  1930  007422                     endByte2:
  1931  007422  2F02               	decfsz	_ledCount& (0+255),f,b	;# 
  1932  007424  D7E1               	bra	byteLoop2	;# 
  1933  007426  0012               	return		;funcret
  1934  007428                     __end_of_writePin2:
  1935                           	opt stack 0
  1936                           tblptru	equ	0xFF8
  1937                           postinc0	equ	0xFEE
  1938                           wreg	equ	0xFE8
  1939                           status	equ	0xFD8
  1940                           
  1941 ;; *************** function _writePin1 *****************
  1942 ;; Defined at:
  1943 ;;		line 82 in file "assemblers.c"
  1944 ;; Parameters:    Size  Location     Type
  1945 ;;		None
  1946 ;; Auto vars:     Size  Location     Type
  1947 ;;		None
  1948 ;; Return value:  Size  Location     Type
  1949 ;;		None               void
  1950 ;; Registers used:
  1951 ;;		wreg
  1952 ;; Tracked objects:
  1953 ;;		On entry : 0/0
  1954 ;;		On exit  : 0/0
  1955 ;;		Unchanged: 0/0
  1956 ;; Data sizes:     COMRAM   BANK0   BANK1   BANK2   BANK3   BANK4   BANK5   BANK6   BANK7   BANK8   BANK9  BANK10  BANK1
      +1  BANK12  BANK13  BANK14
  1957 ;;      Params:         0       0       0       0       0       0       0       0       0       0       0       0       
      +0       0       0       0
  1958 ;;      Locals:         0       0       0       0       0       0       0       0       0       0       0       0       
      +0       0       0       0
  1959 ;;      Temps:          0       0       0       0       0       0       0       0       0       0       0       0       
      +0       0       0       0
  1960 ;;      Totals:         0       0       0       0       0       0       0       0       0       0       0       0       
      +0       0       0       0
  1961 ;;Total ram usage:        0 bytes
  1962 ;; Hardware stack levels used:    1
  1963 ;; This function calls:
  1964 ;;		Nothing
  1965 ;; This function is called by:
  1966 ;;		_writePinMain
  1967 ;; This function uses a non-reentrant model
  1968 ;;
  1969                           
  1970                           	psect	text8
  1971  007384                     __ptext8:
  1972                           	opt stack 0
  1973  007384                     _writePin1:
  1974                           	opt stack 29
  1975                           
  1976                           ;assemblers.c: 85: LATBbits.LB0 = 0;
  1977                           
  1978                           ;incstack = 0
  1979  007384  908A               	bcf	3978,0,c	;volatile
  1980                           
  1981                           ;assemblers.c: 86: _delay((unsigned long)((50)*(48000000/4000000.0)));
  1982  007386  0EC8               	movlw	200
  1983  007388                     u1017:
  1984  007388  2EE8               	decfsz	wreg,f,c
  1985  00738A  D7FE               	goto	u1017
  1986  00738C  010C               	movlb	high _tmpData	;# 
  1987  00738E  0EF0               	movlw	240	;# 
  1988  007390  6F02               	movwf	_ledCount& (0+255),b	;# 
  1989  007392  EE0C  F003         	lfsr	0,_ledData	;# 
  1990  007396                     byteLoop1:
  1991  007396  50EE               	movf	postinc0,w,c	;# 
  1992  007398  6F00               	movwf	_tmpData& (0+255),b	;# 
  1993  00739A  0E08               	movlw	8	; ;# 
  1994  00739C  6F01               	movwf	_bitCount& (0+255),b	;# 
  1995  00739E                     bitLoop1:
  1996  00739E  828A               	bsf	3978,1,c	;# 
  1997  0073A0  AF00               	btfss	_tmpData& (0+255),7,b	;# 
  1998  0073A2  D00C               	bra	writeZero1	;# 
  1999  0073A4  4700               	rlncf	_tmpData& (0+255),f,b	;# 
  2000  0073A6  F000               	nop		;# 
  2001  0073A8  F000               	nop		;# 
  2002  0073AA  F000               	nop		;# 
  2003  0073AC  F000               	nop		;# 
  2004  0073AE  F000               	nop		;# 
  2005  0073B0  F000               	nop		;# 
  2006  0073B2  F000               	nop		;# 
  2007  0073B4  928A               	bcf	3978,1,c	;# 
  2008  0073B6  2F01               	decfsz	_bitCount& (0+255),f,b	;# 
  2009  0073B8  D7F2               	bra	bitLoop1	;# 
  2010  0073BA  D00A               	bra	endByte1	;# 
  2011  0073BC                     writeZero1:
  2012  0073BC  928A               	bcf	3978,1,c	;# 
  2013  0073BE  4700               	rlncf	_tmpData& (0+255),f,b	;# 
  2014  0073C0  F000               	nop		;# 
  2015  0073C2  F000               	nop		;# 
  2016  0073C4  F000               	nop		;# 
  2017  0073C6  F000               	nop		;# 
  2018  0073C8  F000               	nop		;# 
  2019  0073CA  F000               	nop		;# 
  2020  0073CC  2F01               	decfsz	_bitCount& (0+255),f,b	;# 
  2021  0073CE  D7E7               	bra	bitLoop1	;# 
  2022  0073D0                     endByte1:
  2023  0073D0  2F02               	decfsz	_ledCount& (0+255),f,b	;# 
  2024  0073D2  D7E1               	bra	byteLoop1	;# 
  2025  0073D4  0012               	return		;funcret
  2026  0073D6                     __end_of_writePin1:
  2027                           	opt stack 0
  2028                           tblptru	equ	0xFF8
  2029                           postinc0	equ	0xFEE
  2030                           wreg	equ	0xFE8
  2031                           status	equ	0xFD8
  2032                           
  2033 ;; *************** function _writePin0 *****************
  2034 ;; Defined at:
  2035 ;;		line 22 in file "assemblers.c"
  2036 ;; Parameters:    Size  Location     Type
  2037 ;;		None
  2038 ;; Auto vars:     Size  Location     Type
  2039 ;;		None
  2040 ;; Return value:  Size  Location     Type
  2041 ;;		None               void
  2042 ;; Registers used:
  2043 ;;		wreg
  2044 ;; Tracked objects:
  2045 ;;		On entry : 0/0
  2046 ;;		On exit  : 0/0
  2047 ;;		Unchanged: 0/0
  2048 ;; Data sizes:     COMRAM   BANK0   BANK1   BANK2   BANK3   BANK4   BANK5   BANK6   BANK7   BANK8   BANK9  BANK10  BANK1
      +1  BANK12  BANK13  BANK14
  2049 ;;      Params:         0       0       0       0       0       0       0       0       0       0       0       0       
      +0       0       0       0
  2050 ;;      Locals:         0       0       0       0       0       0       0       0       0       0       0       0       
      +0       0       0       0
  2051 ;;      Temps:          0       0       0       0       0       0       0       0       0       0       0       0       
      +0       0       0       0
  2052 ;;      Totals:         0       0       0       0       0       0       0       0       0       0       0       0       
      +0       0       0       0
  2053 ;;Total ram usage:        0 bytes
  2054 ;; Hardware stack levels used:    1
  2055 ;; This function calls:
  2056 ;;		Nothing
  2057 ;; This function is called by:
  2058 ;;		_writePinMain
  2059 ;; This function uses a non-reentrant model
  2060 ;;
  2061                           
  2062                           	psect	text9
  2063  007332                     __ptext9:
  2064                           	opt stack 0
  2065  007332                     _writePin0:
  2066                           	opt stack 29
  2067                           
  2068                           ;assemblers.c: 25: LATBbits.LB0 = 0;
  2069                           
  2070                           ;incstack = 0
  2071  007332  908A               	bcf	3978,0,c	;volatile
  2072                           
  2073                           ;assemblers.c: 26: _delay((unsigned long)((50)*(48000000/4000000.0)));
  2074  007334  0EC8               	movlw	200
  2075  007336                     u1027:
  2076  007336  2EE8               	decfsz	wreg,f,c
  2077  007338  D7FE               	goto	u1027
  2078  00733A  010C               	movlb	high _tmpData	;# 
  2079  00733C  0EF0               	movlw	240	;# 
  2080  00733E  6F02               	movwf	_ledCount& (0+255),b	;# 
  2081  007340  EE0C  F003         	lfsr	0,_ledData	;# 
  2082  007344                     byteLoop0:
  2083  007344  50EE               	movf	postinc0,w,c	;# 
  2084  007346  6F00               	movwf	_tmpData& (0+255),b	;# 
  2085  007348  0E08               	movlw	8	; ;# 
  2086  00734A  6F01               	movwf	_bitCount& (0+255),b	;# 
  2087  00734C                     bitLoop0:
  2088  00734C  808A               	bsf	3978,0,c	;# 
  2089  00734E  AF00               	btfss	_tmpData& (0+255),7,b	;# 
  2090  007350  D00C               	bra	writeZero0	;# 
  2091  007352  4700               	rlncf	_tmpData& (0+255),f,b	;# 
  2092  007354  F000               	nop		;# 
  2093  007356  F000               	nop		;# 
  2094  007358  F000               	nop		;# 
  2095  00735A  F000               	nop		;# 
  2096  00735C  F000               	nop		;# 
  2097  00735E  F000               	nop		;# 
  2098  007360  F000               	nop		;# 
  2099  007362  908A               	bcf	3978,0,c	;# 
  2100  007364  2F01               	decfsz	_bitCount& (0+255),f,b	;# 
  2101  007366  D7F2               	bra	bitLoop0	;# 
  2102  007368  D00A               	bra	endByte0	;# 
  2103  00736A                     writeZero0:
  2104  00736A  908A               	bcf	3978,0,c	;# 
  2105  00736C  4700               	rlncf	_tmpData& (0+255),f,b	;# 
  2106  00736E  F000               	nop		;# 
  2107  007370  F000               	nop		;# 
  2108  007372  F000               	nop		;# 
  2109  007374  F000               	nop		;# 
  2110  007376  F000               	nop		;# 
  2111  007378  F000               	nop		;# 
  2112  00737A  2F01               	decfsz	_bitCount& (0+255),f,b	;# 
  2113  00737C  D7E7               	bra	bitLoop0	;# 
  2114  00737E                     endByte0:
  2115  00737E  2F02               	decfsz	_ledCount& (0+255),f,b	;# 
  2116  007380  D7E1               	bra	byteLoop0	;# 
  2117  007382  0012               	return		;funcret
  2118  007384                     __end_of_writePin0:
  2119                           	opt stack 0
  2120                           tblptru	equ	0xFF8
  2121                           postinc0	equ	0xFEE
  2122                           wreg	equ	0xFE8
  2123                           status	equ	0xFD8
  2124                           
  2125 ;; *************** function _WS2812Write *****************
  2126 ;; Defined at:
  2127 ;;		line 14 in file "WS2812.c"
  2128 ;; Parameters:    Size  Location     Type
  2129 ;;		None
  2130 ;; Auto vars:     Size  Location     Type
  2131 ;;  var             2    0[COMRAM] int 
  2132 ;; Return value:  Size  Location     Type
  2133 ;;		None               void
  2134 ;; Registers used:
  2135 ;;		wreg, status,2
  2136 ;; Tracked objects:
  2137 ;;		On entry : 0/0
  2138 ;;		On exit  : 0/0
  2139 ;;		Unchanged: 0/0
  2140 ;; Data sizes:     COMRAM   BANK0   BANK1   BANK2   BANK3   BANK4   BANK5   BANK6   BANK7   BANK8   BANK9  BANK10  BANK1
      +1  BANK12  BANK13  BANK14
  2141 ;;      Params:         0       0       0       0       0       0       0       0       0       0       0       0       
      +0       0       0       0
  2142 ;;      Locals:         2       0       0       0       0       0       0       0       0       0       0       0       
      +0       0       0       0
  2143 ;;      Temps:          0       0       0       0       0       0       0       0       0       0       0       0       
      +0       0       0       0
  2144 ;;      Totals:         2       0       0       0       0       0       0       0       0       0       0       0       
      +0       0       0       0
  2145 ;;Total ram usage:        2 bytes
  2146 ;; Hardware stack levels used:    1
  2147 ;; This function calls:
  2148 ;;		Nothing
  2149 ;; This function is called by:
  2150 ;;		_main
  2151 ;; This function uses a non-reentrant model
  2152 ;;
  2153                           
  2154                           	psect	text10
  2155  0072CE                     __ptext10:
  2156                           	opt stack 0
  2157  0072CE                     _WS2812Write:
  2158                           	opt stack 30
  2159                           
  2160                           ;WS2812.c: 18: LATBbits.LB0 = 0;
  2161                           
  2162                           ;incstack = 0
  2163  0072CE  908A               	bcf	3978,0,c	;volatile
  2164                           
  2165                           ;WS2812.c: 19: _delay((unsigned long)((50)*(48000000/4000000.0)));
  2166  0072D0  0EC8               	movlw	200
  2167  0072D2                     u1037:
  2168  0072D2  2EE8               	decfsz	wreg,f,c
  2169  0072D4  D7FE               	goto	u1037
  2170                           
  2171                           ;WS2812.c: 25: int var=4;
  2172  0072D6  0E00               	movlw	0
  2173  0072D8  6E02               	movwf	WS2812Write@var+1,c
  2174  0072DA  0E04               	movlw	4
  2175  0072DC  6E01               	movwf	WS2812Write@var,c
  2176  0072DE  0012               	return		;funcret
  2177  0072E0                     __end_of_WS2812Write:
  2178                           	opt stack 0
  2179                           tblptru	equ	0xFF8
  2180                           postinc0	equ	0xFEE
  2181                           wreg	equ	0xFE8
  2182                           status	equ	0xFD8
  2183                           
  2184 ;; *************** function _UART_Read *****************
  2185 ;; Defined at:
  2186 ;;		line 36 in file "uart.h"
  2187 ;; Parameters:    Size  Location     Type
  2188 ;;		None
  2189 ;; Auto vars:     Size  Location     Type
  2190 ;;		None
  2191 ;; Return value:  Size  Location     Type
  2192 ;;                  1    wreg      unsigned char 
  2193 ;; Registers used:
  2194 ;;		wreg, status,2
  2195 ;; Tracked objects:
  2196 ;;		On entry : 0/0
  2197 ;;		On exit  : 0/0
  2198 ;;		Unchanged: 0/0
  2199 ;; Data sizes:     COMRAM   BANK0   BANK1   BANK2   BANK3   BANK4   BANK5   BANK6   BANK7   BANK8   BANK9  BANK10  BANK1
      +1  BANK12  BANK13  BANK14
  2200 ;;      Params:         0       0       0       0       0       0       0       0       0       0       0       0       
      +0       0       0       0
  2201 ;;      Locals:         0       0       0       0       0       0       0       0       0       0       0       0       
      +0       0       0       0
  2202 ;;      Temps:          0       0       0       0       0       0       0       0       0       0       0       0       
      +0       0       0       0
  2203 ;;      Totals:         0       0       0       0       0       0       0       0       0       0       0       0       
      +0       0       0       0
  2204 ;;Total ram usage:        0 bytes
  2205 ;; Hardware stack levels used:    1
  2206 ;; This function calls:
  2207 ;;		Nothing
  2208 ;; This function is called by:
  2209 ;;		_main
  2210 ;;		_UART_Read_Text
  2211 ;; This function uses a non-reentrant model
  2212 ;;
  2213                           
  2214                           	psect	text11
  2215  0072C2                     __ptext11:
  2216                           	opt stack 0
  2217  0072C2                     _UART_Read:
  2218                           	opt stack 30
  2219                           
  2220                           ;uart.h: 39: while(!RCIF);
  2221                           
  2222                           ;incstack = 0
  2223  0072C2  D000               	goto	l70
  2224  0072C4                     l70:
  2225  0072C4  AA9E               	btfss	3998,5,c	;volatile
  2226  0072C6  D7FE               	goto	l70
  2227                           
  2228                           ;uart.h: 40: return RCREG;
  2229  0072C8  50AE               	movf	4014,w,c	;volatile
  2230  0072CA  0012               	return	
  2231  0072CC  0012               	return		;funcret
  2232  0072CE                     __end_of_UART_Read:
  2233                           	opt stack 0
  2234                           tblptru	equ	0xFF8
  2235                           postinc0	equ	0xFEE
  2236                           wreg	equ	0xFE8
  2237                           status	equ	0xFD8
  2238                           
  2239 ;; *************** function _UART_Init *****************
  2240 ;; Defined at:
  2241 ;;		line 1 in file "uart.h"
  2242 ;; Parameters:    Size  Location     Type
  2243 ;;  baudrate        4   14[COMRAM] const long 
  2244 ;; Auto vars:     Size  Location     Type
  2245 ;;  x               2   26[COMRAM] unsigned int 
  2246 ;; Return value:  Size  Location     Type
  2247 ;;		None               void
  2248 ;; Registers used:
  2249 ;;		wreg, status,2, status,0, cstack
  2250 ;; Tracked objects:
  2251 ;;		On entry : 0/0
  2252 ;;		On exit  : 0/0
  2253 ;;		Unchanged: 0/0
  2254 ;; Data sizes:     COMRAM   BANK0   BANK1   BANK2   BANK3   BANK4   BANK5   BANK6   BANK7   BANK8   BANK9  BANK10  BANK1
      +1  BANK12  BANK13  BANK14
  2255 ;;      Params:         4       0       0       0       0       0       0       0       0       0       0       0       
      +0       0       0       0
  2256 ;;      Locals:         2       0       0       0       0       0       0       0       0       0       0       0       
      +0       0       0       0
  2257 ;;      Temps:          8       0       0       0       0       0       0       0       0       0       0       0       
      +0       0       0       0
  2258 ;;      Totals:        14       0       0       0       0       0       0       0       0       0       0       0       
      +0       0       0       0
  2259 ;;Total ram usage:       14 bytes
  2260 ;; Hardware stack levels used:    1
  2261 ;; Hardware stack levels required when called:    1
  2262 ;; This function calls:
  2263 ;;		___aldiv
  2264 ;; This function is called by:
  2265 ;;		_main
  2266 ;; This function uses a non-reentrant model
  2267 ;;
  2268                           
  2269                           	psect	text12
  2270  007780                     __ptext12:
  2271                           	opt stack 0
  2272  007780                     _UART_Init:
  2273                           	opt stack 29
  2274                           
  2275                           ;uart.h: 3: unsigned int x;
  2276                           ;uart.h: 4: x = (48000000 - baudrate*64)/(baudrate*64);
  2277                           
  2278                           ;incstack = 0
  2279  007780  C00F  F013         	movff	UART_Init@baudrate,??_UART_Init
  2280  007784  C010  F014         	movff	UART_Init@baudrate+1,??_UART_Init+1
  2281  007788  C011  F015         	movff	UART_Init@baudrate+2,??_UART_Init+2
  2282  00778C  C012  F016         	movff	UART_Init@baudrate+3,??_UART_Init+3
  2283  007790  0E06               	movlw	6
  2284  007792                     u585:
  2285  007792  90D8               	bcf	status,0,c
  2286  007794  3613               	rlcf	??_UART_Init,f,c
  2287  007796  3614               	rlcf	??_UART_Init+1,f,c
  2288  007798  3615               	rlcf	??_UART_Init+2,f,c
  2289  00779A  3616               	rlcf	??_UART_Init+3,f,c
  2290  00779C  2EE8               	decfsz	wreg,f,c
  2291  00779E  D7F9               	goto	u585
  2292  0077A0  1E13               	comf	??_UART_Init,f,c
  2293  0077A2  1E14               	comf	??_UART_Init+1,f,c
  2294  0077A4  1E15               	comf	??_UART_Init+2,f,c
  2295  0077A6  1E16               	comf	??_UART_Init+3,f,c
  2296  0077A8  2A13               	incf	??_UART_Init,f,c
  2297  0077AA  0E00               	movlw	0
  2298  0077AC  2214               	addwfc	??_UART_Init+1,f,c
  2299  0077AE  2215               	addwfc	??_UART_Init+2,f,c
  2300  0077B0  2216               	addwfc	??_UART_Init+3,f,c
  2301  0077B2  0E00               	movlw	0
  2302  0077B4  2413               	addwf	??_UART_Init,w,c
  2303  0077B6  6E01               	movwf	___aldiv@dividend,c
  2304  0077B8  0E6C               	movlw	108
  2305  0077BA  2014               	addwfc	??_UART_Init+1,w,c
  2306  0077BC  6E02               	movwf	___aldiv@dividend+1,c
  2307  0077BE  0EDC               	movlw	220
  2308  0077C0  2015               	addwfc	??_UART_Init+2,w,c
  2309  0077C2  6E03               	movwf	___aldiv@dividend+2,c
  2310  0077C4  0E02               	movlw	2
  2311  0077C6  2016               	addwfc	??_UART_Init+3,w,c
  2312  0077C8  6E04               	movwf	___aldiv@dividend+3,c
  2313  0077CA  C00F  F017         	movff	UART_Init@baudrate,??_UART_Init+4
  2314  0077CE  C010  F018         	movff	UART_Init@baudrate+1,??_UART_Init+5
  2315  0077D2  C011  F019         	movff	UART_Init@baudrate+2,??_UART_Init+6
  2316  0077D6  C012  F01A         	movff	UART_Init@baudrate+3,??_UART_Init+7
  2317  0077DA  0E06               	movlw	6
  2318  0077DC                     u595:
  2319  0077DC  90D8               	bcf	status,0,c
  2320  0077DE  3617               	rlcf	??_UART_Init+4,f,c
  2321  0077E0  3618               	rlcf	??_UART_Init+5,f,c
  2322  0077E2  3619               	rlcf	??_UART_Init+6,f,c
  2323  0077E4  361A               	rlcf	??_UART_Init+7,f,c
  2324  0077E6  2EE8               	decfsz	wreg,f,c
  2325  0077E8  D7F9               	goto	u595
  2326  0077EA  C017  F005         	movff	??_UART_Init+4,___aldiv@divisor
  2327  0077EE  C018  F006         	movff	??_UART_Init+5,___aldiv@divisor+1
  2328  0077F2  C019  F007         	movff	??_UART_Init+6,___aldiv@divisor+2
  2329  0077F6  C01A  F008         	movff	??_UART_Init+7,___aldiv@divisor+3
  2330  0077FA  EC51  F03B         	call	___aldiv	;wreg free
  2331  0077FE  C001  F01B         	movff	?___aldiv,UART_Init@x
  2332  007802  C002  F01C         	movff	?___aldiv+1,UART_Init@x+1
  2333                           
  2334                           ;uart.h: 5: if(x>255)
  2335  007806  041C               	decf	UART_Init@x+1,w,c
  2336  007808  A0D8               	btfss	status,0,c
  2337  00780A  D045               	goto	l1419
  2338                           
  2339                           ;uart.h: 6: {
  2340                           ;uart.h: 7: x = (48000000 - baudrate*16)/(baudrate*16);
  2341  00780C  C00F  F013         	movff	UART_Init@baudrate,??_UART_Init
  2342  007810  C010  F014         	movff	UART_Init@baudrate+1,??_UART_Init+1
  2343  007814  C011  F015         	movff	UART_Init@baudrate+2,??_UART_Init+2
  2344  007818  C012  F016         	movff	UART_Init@baudrate+3,??_UART_Init+3
  2345  00781C  0E04               	movlw	4
  2346  00781E                     u615:
  2347  00781E  90D8               	bcf	status,0,c
  2348  007820  3613               	rlcf	??_UART_Init,f,c
  2349  007822  3614               	rlcf	??_UART_Init+1,f,c
  2350  007824  3615               	rlcf	??_UART_Init+2,f,c
  2351  007826  3616               	rlcf	??_UART_Init+3,f,c
  2352  007828  2EE8               	decfsz	wreg,f,c
  2353  00782A  D7F9               	goto	u615
  2354  00782C  1E13               	comf	??_UART_Init,f,c
  2355  00782E  1E14               	comf	??_UART_Init+1,f,c
  2356  007830  1E15               	comf	??_UART_Init+2,f,c
  2357  007832  1E16               	comf	??_UART_Init+3,f,c
  2358  007834  2A13               	incf	??_UART_Init,f,c
  2359  007836  0E00               	movlw	0
  2360  007838  2214               	addwfc	??_UART_Init+1,f,c
  2361  00783A  2215               	addwfc	??_UART_Init+2,f,c
  2362  00783C  2216               	addwfc	??_UART_Init+3,f,c
  2363  00783E  0E00               	movlw	0
  2364  007840  2413               	addwf	??_UART_Init,w,c
  2365  007842  6E01               	movwf	___aldiv@dividend,c
  2366  007844  0E6C               	movlw	108
  2367  007846  2014               	addwfc	??_UART_Init+1,w,c
  2368  007848  6E02               	movwf	___aldiv@dividend+1,c
  2369  00784A  0EDC               	movlw	220
  2370  00784C  2015               	addwfc	??_UART_Init+2,w,c
  2371  00784E  6E03               	movwf	___aldiv@dividend+2,c
  2372  007850  0E02               	movlw	2
  2373  007852  2016               	addwfc	??_UART_Init+3,w,c
  2374  007854  6E04               	movwf	___aldiv@dividend+3,c
  2375  007856  C00F  F017         	movff	UART_Init@baudrate,??_UART_Init+4
  2376  00785A  C010  F018         	movff	UART_Init@baudrate+1,??_UART_Init+5
  2377  00785E  C011  F019         	movff	UART_Init@baudrate+2,??_UART_Init+6
  2378  007862  C012  F01A         	movff	UART_Init@baudrate+3,??_UART_Init+7
  2379  007866  0E04               	movlw	4
  2380  007868                     u625:
  2381  007868  90D8               	bcf	status,0,c
  2382  00786A  3617               	rlcf	??_UART_Init+4,f,c
  2383  00786C  3618               	rlcf	??_UART_Init+5,f,c
  2384  00786E  3619               	rlcf	??_UART_Init+6,f,c
  2385  007870  361A               	rlcf	??_UART_Init+7,f,c
  2386  007872  2EE8               	decfsz	wreg,f,c
  2387  007874  D7F9               	goto	u625
  2388  007876  C017  F005         	movff	??_UART_Init+4,___aldiv@divisor
  2389  00787A  C018  F006         	movff	??_UART_Init+5,___aldiv@divisor+1
  2390  00787E  C019  F007         	movff	??_UART_Init+6,___aldiv@divisor+2
  2391  007882  C01A  F008         	movff	??_UART_Init+7,___aldiv@divisor+3
  2392  007886  EC51  F03B         	call	___aldiv	;wreg free
  2393  00788A  C001  F01B         	movff	?___aldiv,UART_Init@x
  2394  00788E  C002  F01C         	movff	?___aldiv+1,UART_Init@x+1
  2395                           
  2396                           ;uart.h: 8: TXSTA2bits.BRGH=1;
  2397  007892  84BA               	bsf	4026,2,c	;volatile
  2398  007894  D000               	goto	l1419
  2399  007896                     l1419:
  2400                           
  2401                           ;uart.h: 10: }
  2402                           ;uart.h: 11: if(x<256)
  2403  007896  041C               	decf	UART_Init@x+1,w,c
  2404  007898  B0D8               	btfsc	status,0,c
  2405  00789A  0012               	return	
  2406                           
  2407                           ;uart.h: 12: {
  2408                           ;uart.h: 13: SPBRG = x;
  2409  00789C  C01B  FFAF         	movff	UART_Init@x,4015	;volatile
  2410                           
  2411                           ;uart.h: 14: TXSTA1bits.SYNC = 0;
  2412  0078A0  98AC               	bcf	4012,4,c	;volatile
  2413                           
  2414                           ;uart.h: 15: RCSTA1bits.SPEN=1;
  2415  0078A2  8EAB               	bsf	4011,7,c	;volatile
  2416                           
  2417                           ;uart.h: 17: TRISC7 = 1;
  2418  0078A4  8E94               	bsf	3988,7,c	;volatile
  2419                           
  2420                           ;uart.h: 18: TRISC6 = 1;
  2421  0078A6  8C94               	bsf	3988,6,c	;volatile
  2422                           
  2423                           ;uart.h: 19: RCSTA1bits.CREN = 1;
  2424  0078A8  88AB               	bsf	4011,4,c	;volatile
  2425                           
  2426                           ;uart.h: 20: TXSTA2bits.TXEN = 1;
  2427  0078AA  8ABA               	bsf	4026,5,c	;volatile
  2428  0078AC  0012               	return	
  2429  0078AE  0012               	return		;funcret
  2430  0078B0                     __end_of_UART_Init:
  2431                           	opt stack 0
  2432                           tblptru	equ	0xFF8
  2433                           postinc0	equ	0xFEE
  2434                           wreg	equ	0xFE8
  2435                           status	equ	0xFD8
  2436                           
  2437 ;; *************** function ___aldiv *****************
  2438 ;; Defined at:
  2439 ;;		line 8 in file "/opt/microchip/xc8/v1.34/sources/common/aldiv.c"
  2440 ;; Parameters:    Size  Location     Type
  2441 ;;  dividend        4    0[COMRAM] long 
  2442 ;;  divisor         4    4[COMRAM] long 
  2443 ;; Auto vars:     Size  Location     Type
  2444 ;;  quotient        4   10[COMRAM] long 
  2445 ;;  sign            1    9[COMRAM] unsigned char 
  2446 ;;  counter         1    8[COMRAM] unsigned char 
  2447 ;; Return value:  Size  Location     Type
  2448 ;;                  4    0[COMRAM] long 
  2449 ;; Registers used:
  2450 ;;		wreg, status,2, status,0
  2451 ;; Tracked objects:
  2452 ;;		On entry : 0/0
  2453 ;;		On exit  : 0/0
  2454 ;;		Unchanged: 0/0
  2455 ;; Data sizes:     COMRAM   BANK0   BANK1   BANK2   BANK3   BANK4   BANK5   BANK6   BANK7   BANK8   BANK9  BANK10  BANK1
      +1  BANK12  BANK13  BANK14
  2456 ;;      Params:         8       0       0       0       0       0       0       0       0       0       0       0       
      +0       0       0       0
  2457 ;;      Locals:         6       0       0       0       0       0       0       0       0       0       0       0       
      +0       0       0       0
  2458 ;;      Temps:          0       0       0       0       0       0       0       0       0       0       0       0       
      +0       0       0       0
  2459 ;;      Totals:        14       0       0       0       0       0       0       0       0       0       0       0       
      +0       0       0       0
  2460 ;;Total ram usage:       14 bytes
  2461 ;; Hardware stack levels used:    1
  2462 ;; This function calls:
  2463 ;;		Nothing
  2464 ;; This function is called by:
  2465 ;;		_UART_Init
  2466 ;; This function uses a non-reentrant model
  2467 ;;
  2468                           
  2469                           	psect	text13
  2470  0076A2                     __ptext13:
  2471                           	opt stack 0
  2472  0076A2                     ___aldiv:
  2473                           	opt stack 29
  2474                           
  2475                           ;incstack = 0
  2476  0076A2  0E00               	movlw	0
  2477  0076A4  6E0A               	movwf	___aldiv@sign,c
  2478  0076A6  AE08               	btfss	___aldiv@divisor+3,7,c
  2479  0076A8  D00B               	goto	l1375
  2480  0076AA  1E08               	comf	___aldiv@divisor+3,f,c
  2481  0076AC  1E07               	comf	___aldiv@divisor+2,f,c
  2482  0076AE  1E06               	comf	___aldiv@divisor+1,f,c
  2483  0076B0  6C05               	negf	___aldiv@divisor,c
  2484  0076B2  0E00               	movlw	0
  2485  0076B4  2206               	addwfc	___aldiv@divisor+1,f,c
  2486  0076B6  2207               	addwfc	___aldiv@divisor+2,f,c
  2487  0076B8  2208               	addwfc	___aldiv@divisor+3,f,c
  2488  0076BA  0E01               	movlw	1
  2489  0076BC  6E0A               	movwf	___aldiv@sign,c
  2490  0076BE  D000               	goto	l1375
  2491  0076C0                     l1375:
  2492  0076C0  AE04               	btfss	___aldiv@dividend+3,7,c
  2493  0076C2  D00B               	goto	l1381
  2494  0076C4  1E04               	comf	___aldiv@dividend+3,f,c
  2495  0076C6  1E03               	comf	___aldiv@dividend+2,f,c
  2496  0076C8  1E02               	comf	___aldiv@dividend+1,f,c
  2497  0076CA  6C01               	negf	___aldiv@dividend,c
  2498  0076CC  0E00               	movlw	0
  2499  0076CE  2202               	addwfc	___aldiv@dividend+1,f,c
  2500  0076D0  2203               	addwfc	___aldiv@dividend+2,f,c
  2501  0076D2  2204               	addwfc	___aldiv@dividend+3,f,c
  2502  0076D4  0E01               	movlw	1
  2503  0076D6  1A0A               	xorwf	___aldiv@sign,f,c
  2504  0076D8  D000               	goto	l1381
  2505  0076DA                     l1381:
  2506  0076DA  0E00               	movlw	0
  2507  0076DC  6E0B               	movwf	___aldiv@quotient,c
  2508  0076DE  0E00               	movlw	0
  2509  0076E0  6E0C               	movwf	___aldiv@quotient+1,c
  2510  0076E2  0E00               	movlw	0
  2511  0076E4  6E0D               	movwf	___aldiv@quotient+2,c
  2512  0076E6  0E00               	movlw	0
  2513  0076E8  6E0E               	movwf	___aldiv@quotient+3,c
  2514  0076EA  5005               	movf	___aldiv@divisor,w,c
  2515  0076EC  1006               	iorwf	___aldiv@divisor+1,w,c
  2516  0076EE  1007               	iorwf	___aldiv@divisor+2,w,c
  2517  0076F0  1008               	iorwf	___aldiv@divisor+3,w,c
  2518  0076F2  B4D8               	btfsc	status,2,c
  2519  0076F4  D02F               	goto	l1403
  2520  0076F6  0E01               	movlw	1
  2521  0076F8  6E09               	movwf	___aldiv@counter,c
  2522  0076FA  D007               	goto	l1389
  2523  0076FC                     l1387:
  2524  0076FC  90D8               	bcf	status,0,c
  2525  0076FE  3605               	rlcf	___aldiv@divisor,f,c
  2526  007700  3606               	rlcf	___aldiv@divisor+1,f,c
  2527  007702  3607               	rlcf	___aldiv@divisor+2,f,c
  2528  007704  3608               	rlcf	___aldiv@divisor+3,f,c
  2529  007706  2A09               	incf	___aldiv@counter,f,c
  2530  007708  D000               	goto	l1389
  2531  00770A                     l1389:
  2532  00770A  BE08               	btfsc	___aldiv@divisor+3,7,c
  2533  00770C  D002               	goto	l1391
  2534  00770E  D7F6               	goto	l1387
  2535  007710  D000               	goto	l1391
  2536  007712                     l1391:
  2537  007712  90D8               	bcf	status,0,c
  2538  007714  360B               	rlcf	___aldiv@quotient,f,c
  2539  007716  360C               	rlcf	___aldiv@quotient+1,f,c
  2540  007718  360D               	rlcf	___aldiv@quotient+2,f,c
  2541  00771A  360E               	rlcf	___aldiv@quotient+3,f,c
  2542  00771C  5005               	movf	___aldiv@divisor,w,c
  2543  00771E  5C01               	subwf	___aldiv@dividend,w,c
  2544  007720  5006               	movf	___aldiv@divisor+1,w,c
  2545  007722  5802               	subwfb	___aldiv@dividend+1,w,c
  2546  007724  5007               	movf	___aldiv@divisor+2,w,c
  2547  007726  5803               	subwfb	___aldiv@dividend+2,w,c
  2548  007728  5008               	movf	___aldiv@divisor+3,w,c
  2549  00772A  5804               	subwfb	___aldiv@dividend+3,w,c
  2550  00772C  A0D8               	btfss	status,0,c
  2551  00772E  D00A               	goto	l1399
  2552  007730  5005               	movf	___aldiv@divisor,w,c
  2553  007732  5E01               	subwf	___aldiv@dividend,f,c
  2554  007734  5006               	movf	___aldiv@divisor+1,w,c
  2555  007736  5A02               	subwfb	___aldiv@dividend+1,f,c
  2556  007738  5007               	movf	___aldiv@divisor+2,w,c
  2557  00773A  5A03               	subwfb	___aldiv@dividend+2,f,c
  2558  00773C  5008               	movf	___aldiv@divisor+3,w,c
  2559  00773E  5A04               	subwfb	___aldiv@dividend+3,f,c
  2560  007740  800B               	bsf	___aldiv@quotient,0,c
  2561  007742  D000               	goto	l1399
  2562  007744                     l1399:
  2563  007744  90D8               	bcf	status,0,c
  2564  007746  3208               	rrcf	___aldiv@divisor+3,f,c
  2565  007748  3207               	rrcf	___aldiv@divisor+2,f,c
  2566  00774A  3206               	rrcf	___aldiv@divisor+1,f,c
  2567  00774C  3205               	rrcf	___aldiv@divisor,f,c
  2568  00774E  2E09               	decfsz	___aldiv@counter,f,c
  2569  007750  D7E0               	goto	l1391
  2570  007752  D000               	goto	l1403
  2571  007754                     l1403:
  2572  007754  500A               	movf	___aldiv@sign,w,c
  2573  007756  B4D8               	btfsc	status,2,c
  2574  007758  D009               	goto	l1407
  2575  00775A  1E0E               	comf	___aldiv@quotient+3,f,c
  2576  00775C  1E0D               	comf	___aldiv@quotient+2,f,c
  2577  00775E  1E0C               	comf	___aldiv@quotient+1,f,c
  2578  007760  6C0B               	negf	___aldiv@quotient,c
  2579  007762  0E00               	movlw	0
  2580  007764  220C               	addwfc	___aldiv@quotient+1,f,c
  2581  007766  220D               	addwfc	___aldiv@quotient+2,f,c
  2582  007768  220E               	addwfc	___aldiv@quotient+3,f,c
  2583  00776A  D000               	goto	l1407
  2584  00776C                     l1407:
  2585  00776C  C00B  F001         	movff	___aldiv@quotient,?___aldiv
  2586  007770  C00C  F002         	movff	___aldiv@quotient+1,?___aldiv+1
  2587  007774  C00D  F003         	movff	___aldiv@quotient+2,?___aldiv+2
  2588  007778  C00E  F004         	movff	___aldiv@quotient+3,?___aldiv+3
  2589  00777C  0012               	return	
  2590  00777E  0012               	return		;funcret
  2591  007780                     __end_of___aldiv:
  2592                           	opt stack 0
  2593                           tblptru	equ	0xFF8
  2594                           postinc0	equ	0xFEE
  2595                           wreg	equ	0xFE8
  2596                           status	equ	0xFD8
  2597                           
  2598 ;; *************** function _UART_Data_Ready *****************
  2599 ;; Defined at:
  2600 ;;		line 32 in file "uart.h"
  2601 ;; Parameters:    Size  Location     Type
  2602 ;;		None
  2603 ;; Auto vars:     Size  Location     Type
  2604 ;;		None
  2605 ;; Return value:  Size  Location     Type
  2606 ;;                  1    wreg      unsigned char 
  2607 ;; Registers used:
  2608 ;;		wreg
  2609 ;; Tracked objects:
  2610 ;;		On entry : 0/0
  2611 ;;		On exit  : 0/0
  2612 ;;		Unchanged: 0/0
  2613 ;; Data sizes:     COMRAM   BANK0   BANK1   BANK2   BANK3   BANK4   BANK5   BANK6   BANK7   BANK8   BANK9  BANK10  BANK1
      +1  BANK12  BANK13  BANK14
  2614 ;;      Params:         0       0       0       0       0       0       0       0       0       0       0       0       
      +0       0       0       0
  2615 ;;      Locals:         0       0       0       0       0       0       0       0       0       0       0       0       
      +0       0       0       0
  2616 ;;      Temps:          0       0       0       0       0       0       0       0       0       0       0       0       
      +0       0       0       0
  2617 ;;      Totals:         0       0       0       0       0       0       0       0       0       0       0       0       
      +0       0       0       0
  2618 ;;Total ram usage:        0 bytes
  2619 ;; Hardware stack levels used:    1
  2620 ;; This function calls:
  2621 ;;		Nothing
  2622 ;; This function is called by:
  2623 ;;		_main
  2624 ;; This function uses a non-reentrant model
  2625 ;;
  2626                           
  2627                           	psect	text14
  2628  0072B8                     __ptext14:
  2629                           	opt stack 0
  2630  0072B8                     _UART_Data_Ready:
  2631                           	opt stack 30
  2632                           
  2633                           ;uart.h: 34: return RCIF;
  2634                           
  2635                           ;incstack = 0
  2636  0072B8  0E00               	movlw	0
  2637  0072BA  BA9E               	btfsc	3998,5,c	;volatile
  2638  0072BC  0E01               	movlw	1
  2639  0072BE  0012               	return	
  2640  0072C0  0012               	return		;funcret
  2641  0072C2                     __end_of_UART_Data_Ready:
  2642                           	opt stack 0
  2643                           tblptru	equ	0xFF8
  2644                           postinc0	equ	0xFEE
  2645                           wreg	equ	0xFE8
  2646                           status	equ	0xFD8
  2647                           
  2648 ;; *************** function _SetAllRGB *****************
  2649 ;; Defined at:
  2650 ;;		line 92 in file "WS2812.c"
  2651 ;; Parameters:    Size  Location     Type
  2652 ;;  red             1    wreg     unsigned char 
  2653 ;;  green           1    0[COMRAM] unsigned char 
  2654 ;;  blue            1    1[COMRAM] unsigned char 
  2655 ;; Auto vars:     Size  Location     Type
  2656 ;;  red             1    2[COMRAM] unsigned char 
  2657 ;;  i               2    3[COMRAM] int 
  2658 ;;  idx             1    5[COMRAM] unsigned char 
  2659 ;; Return value:  Size  Location     Type
  2660 ;;		None               void
  2661 ;; Registers used:
  2662 ;;		wreg, fsr2l, fsr2h, status,2, status,0, prodl, prodh
  2663 ;; Tracked objects:
  2664 ;;		On entry : 0/0
  2665 ;;		On exit  : 0/0
  2666 ;;		Unchanged: 0/0
  2667 ;; Data sizes:     COMRAM   BANK0   BANK1   BANK2   BANK3   BANK4   BANK5   BANK6   BANK7   BANK8   BANK9  BANK10  BANK1
      +1  BANK12  BANK13  BANK14
  2668 ;;      Params:         2       0       0       0       0       0       0       0       0       0       0       0       
      +0       0       0       0
  2669 ;;      Locals:         4       0       0       0       0       0       0       0       0       0       0       0       
      +0       0       0       0
  2670 ;;      Temps:          0       0       0       0       0       0       0       0       0       0       0       0       
      +0       0       0       0
  2671 ;;      Totals:         6       0       0       0       0       0       0       0       0       0       0       0       
      +0       0       0       0
  2672 ;;Total ram usage:        6 bytes
  2673 ;; Hardware stack levels used:    1
  2674 ;; This function calls:
  2675 ;;		Nothing
  2676 ;; This function is called by:
  2677 ;;		_main
  2678 ;; This function uses a non-reentrant model
  2679 ;;
  2680                           
  2681                           	psect	text15
  2682  0075C2                     __ptext15:
  2683                           	opt stack 0
  2684  0075C2                     _SetAllRGB:
  2685                           	opt stack 30
  2686                           
  2687                           ;incstack = 0
  2688                           ;SetAllRGB@red stored from wreg
  2689  0075C2  6E03               	movwf	SetAllRGB@red,c
  2690                           
  2691                           ;WS2812.c: 94: unsigned char idx = 0;
  2692  0075C4  0E00               	movlw	0
  2693  0075C6  6E06               	movwf	SetAllRGB@idx,c
  2694                           
  2695                           ;WS2812.c: 96: for (int i=0; i<80; i++)
  2696  0075C8  0E00               	movlw	0
  2697  0075CA  6E05               	movwf	SetAllRGB@i+1,c
  2698  0075CC  0E00               	movlw	0
  2699  0075CE  6E04               	movwf	SetAllRGB@i,c
  2700  0075D0                     l1431:
  2701  0075D0  BE05               	btfsc	SetAllRGB@i+1,7,c
  2702  0075D2  D008               	goto	l1435
  2703  0075D4  5005               	movf	SetAllRGB@i+1,w,c
  2704  0075D6  E12B               	bnz	l130
  2705  0075D8  0E50               	movlw	80
  2706  0075DA  5C04               	subwf	SetAllRGB@i,w,c
  2707  0075DC  B0D8               	btfsc	status,0,c
  2708  0075DE  0012               	return	
  2709  0075E0  D001               	goto	l1435
  2710  0075E2  0012               	return	
  2711  0075E4                     l1435:
  2712                           
  2713                           ;WS2812.c: 97: {
  2714                           ;WS2812.c: 98: ledData[idx] = green;
  2715  0075E4  5006               	movf	SetAllRGB@idx,w,c
  2716  0075E6  0D01               	mullw	1
  2717  0075E8  0E03               	movlw	3
  2718  0075EA  24F3               	addwf	prodl,w,c
  2719  0075EC  6ED9               	movwf	fsr2l,c
  2720  0075EE  0E0C               	movlw	12
  2721  0075F0  20F4               	addwfc	prodh,w,c
  2722  0075F2  6EDA               	movwf	fsr2h,c
  2723  0075F4  C001  FFDF         	movff	SetAllRGB@green,indf2
  2724                           
  2725                           ;WS2812.c: 99: idx++;
  2726  0075F8  2A06               	incf	SetAllRGB@idx,f,c
  2727                           
  2728                           ;WS2812.c: 100: ledData[idx] = red;
  2729  0075FA  5006               	movf	SetAllRGB@idx,w,c
  2730  0075FC  0D01               	mullw	1
  2731  0075FE  0E03               	movlw	3
  2732  007600  24F3               	addwf	prodl,w,c
  2733  007602  6ED9               	movwf	fsr2l,c
  2734  007604  0E0C               	movlw	12
  2735  007606  20F4               	addwfc	prodh,w,c
  2736  007608  6EDA               	movwf	fsr2h,c
  2737  00760A  C003  FFDF         	movff	SetAllRGB@red,indf2
  2738                           
  2739                           ;WS2812.c: 101: idx++;
  2740  00760E  2A06               	incf	SetAllRGB@idx,f,c
  2741                           
  2742                           ;WS2812.c: 102: ledData[idx] = blue;
  2743  007610  5006               	movf	SetAllRGB@idx,w,c
  2744  007612  0D01               	mullw	1
  2745  007614  0E03               	movlw	3
  2746  007616  24F3               	addwf	prodl,w,c
  2747  007618  6ED9               	movwf	fsr2l,c
  2748  00761A  0E0C               	movlw	12
  2749  00761C  20F4               	addwfc	prodh,w,c
  2750  00761E  6EDA               	movwf	fsr2h,c
  2751  007620  C002  FFDF         	movff	SetAllRGB@blue,indf2
  2752                           
  2753                           ;WS2812.c: 103: idx++;
  2754  007624  2A06               	incf	SetAllRGB@idx,f,c
  2755  007626  4A04               	infsnz	SetAllRGB@i,f,c
  2756  007628  2A05               	incf	SetAllRGB@i+1,f,c
  2757  00762A  D7D2               	goto	l1431
  2758  00762C  0012               	return	
  2759  00762E                     l130:
  2760  00762E  0012               	return		;funcret
  2761  007630                     __end_of_SetAllRGB:
  2762                           	opt stack 0
  2763                           tblptru	equ	0xFF8
  2764                           prodh	equ	0xFF4
  2765                           prodl	equ	0xFF3
  2766                           postinc0	equ	0xFEE
  2767                           wreg	equ	0xFE8
  2768                           indf2	equ	0xFDF
  2769                           fsr2h	equ	0xFDA
  2770                           fsr2l	equ	0xFD9
  2771                           status	equ	0xFD8
  2772                           
  2773 ;; *************** function _DelayMs *****************
  2774 ;; Defined at:
  2775 ;;		line 10 in file "main.c"
  2776 ;; Parameters:    Size  Location     Type
  2777 ;;  x               2    0[COMRAM] unsigned int 
  2778 ;; Auto vars:     Size  Location     Type
  2779 ;;  i               2    3[COMRAM] unsigned int 
  2780 ;; Return value:  Size  Location     Type
  2781 ;;		None               void
  2782 ;; Registers used:
  2783 ;;		wreg, status,2, status,0
  2784 ;; Tracked objects:
  2785 ;;		On entry : 0/0
  2786 ;;		On exit  : 0/0
  2787 ;;		Unchanged: 0/0
  2788 ;; Data sizes:     COMRAM   BANK0   BANK1   BANK2   BANK3   BANK4   BANK5   BANK6   BANK7   BANK8   BANK9  BANK10  BANK1
      +1  BANK12  BANK13  BANK14
  2789 ;;      Params:         2       0       0       0       0       0       0       0       0       0       0       0       
      +0       0       0       0
  2790 ;;      Locals:         2       0       0       0       0       0       0       0       0       0       0       0       
      +0       0       0       0
  2791 ;;      Temps:          1       0       0       0       0       0       0       0       0       0       0       0       
      +0       0       0       0
  2792 ;;      Totals:         5       0       0       0       0       0       0       0       0       0       0       0       
      +0       0       0       0
  2793 ;;Total ram usage:        5 bytes
  2794 ;; Hardware stack levels used:    1
  2795 ;; This function calls:
  2796 ;;		Nothing
  2797 ;; This function is called by:
  2798 ;;		_main
  2799 ;; This function uses a non-reentrant model
  2800 ;;
  2801                           
  2802                           	psect	text16
  2803  007306                     __ptext16:
  2804                           	opt stack 0
  2805  007306                     _DelayMs:
  2806                           	opt stack 30
  2807                           
  2808                           ;main.c: 12: for (unsigned int i = 0; i<x ; i++)
  2809                           
  2810                           ;incstack = 0
  2811  007306  0E00               	movlw	0
  2812  007308  6E05               	movwf	DelayMs@i+1,c
  2813  00730A  0E00               	movlw	0
  2814  00730C  6E04               	movwf	DelayMs@i,c
  2815  00730E  D00A               	goto	l94
  2816  007310                     l1425:
  2817                           
  2818                           ;main.c: 13: {
  2819                           ;main.c: 14: _delay((unsigned long)((1)*(48000000/4000.0)));
  2820  007310  0E10               	movlw	16
  2821  007312  6E03               	movwf	??_DelayMs& (0+255),c
  2822  007314  0E94               	movlw	148
  2823  007316                     u1047:
  2824  007316  2EE8               	decfsz	wreg,f,c
  2825  007318  D7FE               	goto	u1047
  2826  00731A  2E03               	decfsz	??_DelayMs& (0+255),f,c
  2827  00731C  D7FC               	goto	u1047
  2828  00731E  D000               	nop2	
  2829  007320  4A04               	infsnz	DelayMs@i,f,c
  2830  007322  2A05               	incf	DelayMs@i+1,f,c
  2831  007324                     l94:
  2832  007324  5001               	movf	DelayMs@x,w,c
  2833  007326  5C04               	subwf	DelayMs@i,w,c
  2834  007328  5002               	movf	DelayMs@x+1,w,c
  2835  00732A  5805               	subwfb	DelayMs@i+1,w,c
  2836  00732C  A0D8               	btfss	status,0,c
  2837  00732E  D7F0               	goto	l1425
  2838  007330  0012               	return		;funcret
  2839  007332                     __end_of_DelayMs:
  2840                           	opt stack 0
  2841                           tblptru	equ	0xFF8
  2842                           prodh	equ	0xFF4
  2843                           prodl	equ	0xFF3
  2844                           postinc0	equ	0xFEE
  2845                           wreg	equ	0xFE8
  2846                           indf2	equ	0xFDF
  2847                           fsr2h	equ	0xFDA
  2848                           fsr2l	equ	0xFD9
  2849                           status	equ	0xFD8
  2850                           tblptru	equ	0xFF8
  2851                           prodh	equ	0xFF4
  2852                           prodl	equ	0xFF3
  2853                           postinc0	equ	0xFEE
  2854                           wreg	equ	0xFE8
  2855                           indf2	equ	0xFDF
  2856                           fsr2h	equ	0xFDA
  2857                           fsr2l	equ	0xFD9
  2858                           status	equ	0xFD8
  2859                           
  2860                           	psect	rparam
  2861  0000                     tblptru	equ	0xFF8
  2862                           prodh	equ	0xFF4
  2863                           prodl	equ	0xFF3
  2864                           postinc0	equ	0xFEE
  2865                           wreg	equ	0xFE8
  2866                           indf2	equ	0xFDF
  2867                           fsr2h	equ	0xFDA
  2868                           fsr2l	equ	0xFD9
  2869                           status	equ	0xFD8


Data Sizes:
    Strings     0
    Constant    1536
    Data        0
    BSS         258
    Persistent  0
    Stack       0

Auto Spaces:
    Space          Size  Autos    Used
    COMRAM           95     28      30
    BANK0           160      0     128
    BANK1           256      0     128
    BANK2           256      0       0
    BANK3           256      0       0
    BANK4           256      0       0
    BANK5           256      0       0
    BANK6           256      0       0
    BANK7           256      0       0
    BANK8           256      0       0
    BANK9           256      0       0
    BANK10          256      0       0
    BANK11          256      0       0
    BANK12           13      0       0
    BANK13          256      0       0
    BANK14           65      0       0

Pointer List with Targets:

    None.

Critical Paths under _main in COMRAM

    _main->_UART_Init
    _UART_Init->___aldiv

Critical Paths under _main in BANK0

    None.

Critical Paths under _main in BANK1

    None.

Critical Paths under _main in BANK2

    None.

Critical Paths under _main in BANK3

    None.

Critical Paths under _main in BANK4

    None.

Critical Paths under _main in BANK5

    None.

Critical Paths under _main in BANK6

    None.

Critical Paths under _main in BANK7

    None.

Critical Paths under _main in BANK8

    None.

Critical Paths under _main in BANK9

    None.

Critical Paths under _main in BANK10

    None.

Critical Paths under _main in BANK11

    None.

Critical Paths under _main in BANK12

    None.

Critical Paths under _main in BANK13

    None.

Critical Paths under _main in BANK14

    None.

Call Graph Tables:

 ---------------------------------------------------------------------------------
 (Depth) Function   	        Calls       Base Space   Used Autos Params    Refs
 ---------------------------------------------------------------------------------
 (0) _main                                                 0     0      0    2296
                            _DelayMs
                          _SetAllRGB
                    _UART_Data_Ready
                          _UART_Init
                          _UART_Read
                        _WS2812Write
                       _writePinMain
 ---------------------------------------------------------------------------------
 (1) _writePinMain                                         4     2      2     340
                                              0 COMRAM     4     2      2
                          _writePin0
                          _writePin1
                          _writePin2
                          _writePin3
                          _writePin4
                          _writePin5
                          _writePin6
                          _writePin7
 ---------------------------------------------------------------------------------
 (2) _writePin7                                            0     0      0       0
 ---------------------------------------------------------------------------------
 (2) _writePin6                                            0     0      0       0
 ---------------------------------------------------------------------------------
 (2) _writePin5                                            0     0      0       0
 ---------------------------------------------------------------------------------
 (2) _writePin4                                            0     0      0       0
 ---------------------------------------------------------------------------------
 (2) _writePin3                                            0     0      0       0
 ---------------------------------------------------------------------------------
 (2) _writePin2                                            0     0      0       0
 ---------------------------------------------------------------------------------
 (2) _writePin1                                            0     0      0       0
 ---------------------------------------------------------------------------------
 (2) _writePin0                                            0     0      0       0
 ---------------------------------------------------------------------------------
 (1) _WS2812Write                                          2     2      0       0
                                              0 COMRAM     2     2      0
 ---------------------------------------------------------------------------------
 (1) _UART_Read                                            0     0      0       0
 ---------------------------------------------------------------------------------
 (1) _UART_Init                                           14    10      4     721
                                             14 COMRAM    14    10      4
                            ___aldiv
 ---------------------------------------------------------------------------------
 (2) ___aldiv                                             14     6      8     512
                                              0 COMRAM    14     6      8
 ---------------------------------------------------------------------------------
 (1) _UART_Data_Ready                                      0     0      0       0
 ---------------------------------------------------------------------------------
 (1) _SetAllRGB                                            6     4      2     818
                                              0 COMRAM     6     4      2
 ---------------------------------------------------------------------------------
 (1) _DelayMs                                              5     3      2     417
                                              0 COMRAM     5     3      2
 ---------------------------------------------------------------------------------
 Estimated maximum stack depth 2
 ---------------------------------------------------------------------------------

 Call Graph Graphs:

 _main (ROOT)
   _DelayMs
   _SetAllRGB
   _UART_Data_Ready
   _UART_Init
     ___aldiv
   _UART_Read
   _WS2812Write
   _writePinMain
     _writePin0
     _writePin1
     _writePin2
     _writePin3
     _writePin4
     _writePin5
     _writePin6
     _writePin7

 Address spaces:
Name               Size   Autos  Total    Cost      Usage
BIGRAMl            BFF      0       0      36        0.0%
EEDATA             400      0       0       0        0.0%
BIGRAMh            14E      0       0      35        0.0%
BITBANK13          100      0       0      31        0.0%
BANK13             100      0       0      32        0.0%
BITBANK11          100      0       0      27        0.0%
BANK11             100      0       0      28        0.0%
BITBANK10          100      0       0      25        0.0%
BANK10             100      0       0      26        0.0%
BITBANK9           100      0       0      23        0.0%
BANK9              100      0       0      24        0.0%
BITBANK8           100      0       0      21        0.0%
BANK8              100      0       0      22        0.0%
BITBANK7           100      0       0      19        0.0%
BANK7              100      0       0      20        0.0%
BITBANK6           100      0       0      17        0.0%
BANK6              100      0       0      18        0.0%
BITBANK5           100      0       0      14        0.0%
BANK5              100      0       0      15        0.0%
BITBANK4           100      0       0      12        0.0%
BANK4              100      0       0      13        0.0%
BITBANK3           100      0       0      10        0.0%
BANK3              100      0       0      11        0.0%
BITBANK2           100      0       0       8        0.0%
BANK2              100      0       0       9        0.0%
BITBANK1           100      0       0       6        0.0%
BANK1              100      0      80       7       50.0%
BITBANK0            A0      0       0       4        0.0%
BANK0               A0      0      80       5       80.0%
BITCOMRAM           5F      0       0       0        0.0%
COMRAM              5F     1C      1E       1       31.6%
BITBANK14           41      0       0      33        0.0%
BANK14              41      0       0      34        0.0%
BITBANK12            D      0       0      29        0.0%
BANK12               D      0       0      30        0.0%
BITSFR_2             0      0       0      40        0.0%
SFR_2                0      0       0      40        0.0%
BITSFR_1             0      0       0      40        0.0%
SFR_1                0      0       0      40        0.0%
BITSFR               0      0       0      40        0.0%
SFR                  0      0       0      40        0.0%
STACK                0      0       0       2        0.0%
NULL                 0      0       0       0        0.0%
ABS                  0      0     11E      16        0.0%
DATA                 0      0     11E       3        0.0%
CODE                 0      0       0       0        0.0%


Microchip Technology PIC18 Macro Assembler V1.34 build -361300703 
Symbol Table                                                                                   Thu Jul 16 05:56:32 2015

                      l70 72C4                        l94 7324              __CFG_CP0$OFF 000000  
                     LATB 000F8A                       l130 762E                       _RA1 007C01  
                     _RA2 007C02                       _RA3 007C03                       u615 781E  
                     u625 7868                       u585 7792                       u595 77DC  
                     u957 7574                       u967 7522                       u977 74D0  
                     u987 747E                       u997 742C                       _var 001D  
                     prod 000FF3                       wreg 000FE8                _TXSTA1bits 000FAC  
              _TXSTA2bits 000FBA                      l1403 7754                      l1431 75D0  
                    l1407 776C                      l1425 7310                      l1435 75E4  
                    l1419 7896                      l1451 7632                      l1611 792A  
                    l1381 76DA                      l1461 7650                      l1453 7638  
                    l1613 793A                      l1391 7712                      l1375 76C0  
                    l1463 7656                      l1455 763E                      l1607 7918  
                    l1465 765C                      l1457 7644                      l1387 76FC  
                    l1459 764A                      l1389 770A                      l1469 7662  
                    l1399 7744                      u1007 73DA                      u1017 7388  
                    u1027 7336                      u1037 72D2                      u1047 7316  
                    _LATA 000F89                      _LATB 000F8A                      _LATC 000F8B  
                    _RCIF 007CF5              __CFG_WDTPS$1 000000                      _main 78B0  
                    indf2 000FDF                      fsr2l 000FD9                      prodl 000FF3  
                    start 0000             __CFG_IESO$OFF 000000           __end_of_DelayMs 7332  
            ___param_bank 000010           __end_of___aldiv 7780                     ?_main 0001  
                   _RCREG 000FAE                     _SPBRG 000FAF                     _PORTA 000F80  
                   _TRISA 000F92                     _TRISB 000F93                     _TRISC 000F94  
                   _TXREG 000FAD            __CFG_FCMEN$OFF 000000        __size_of_UART_Init 0130  
      __size_of_UART_Read 000C                SetAllRGB@i 0004              ?_WS2812Write 0001  
                   status 000FD8     __size_of_writePinMain 0072           __initialization 72E0  
            __end_of_main 79FE                    ??_main 001D             __activetblptr 000002  
          __CFG_PLLCFG$ON 000000          __end_of_Sinewave 7FFF            WS2812Write@var 0001  
                  _ADCON0 000FC2                    _ADCON1 000FC1                    _ADCON2 000FC0  
                  _ADRESH 000FC4                    _ADRESL 000FC3              _writePinMain 7630  
                  _GODONE 007E11            __CFG_WDTEN$OFF 000000                 ??_DelayMs 0003  
                  _TRISC6 007CA6                    _TRISC7 007CA7            __CFG_XINST$OFF 000000  
      __size_of_SetAllRGB 006E         __end_of_UART_Init 78B0         __end_of_UART_Read 72CE  
               ??___aldiv 0009                    clear_0 72E6                    clear_1 72F2  
            __mediumconst 79FE                    tblptru 000FF8                __accesstop 0060  
 __end_of__initialization 72FC     writePinMain@pinChoice 0001             ___rparam_used 000001  
          __pcstackCOMRAM 0001         __end_of_SetAllRGB 7630                __pbssBANK0 0060  
              __pbssBANK1 0100  __size_of_UART_Data_Ready 000A      __size_of_WS2812Write 0012  
                 POSTINC0 000FEE                   _DelayMs 7306        __size_of_writePin0 0052  
      __size_of_writePin1 0052        __size_of_writePin2 0052        __size_of_writePin3 0052  
      __size_of_writePin4 0052        __size_of_writePin5 0052        __size_of_writePin6 0052  
      __size_of_writePin7 0052                   __Hparam 0000                   __Lparam 0000  
            SetAllRGB@idx 0006              SetAllRGB@red 0003                   ___aldiv 76A2  
                 __pcinit 72E0                   __ramtop 0F00                   _ledData 000C03  
                 __ptext0 78B0                   __ptext1 7630                   __ptext2 7570  
                 __ptext3 751E                   __ptext4 74CC                   __ptext5 747A  
                 __ptext6 7428                   __ptext7 73D6                   __ptext8 7384  
                 __ptext9 7332                   bitLoop0 734C                   bitLoop1 739E  
                 bitLoop2 73F0                   bitLoop3 7442                   bitLoop4 7494  
                 bitLoop5 74E6                   bitLoop6 7538                   bitLoop7 758A  
                 endByte0 737E                   endByte1 73D0                   endByte2 7422  
                 endByte3 7474                   endByte4 74C6                   endByte5 7518  
                 endByte6 756A                   endByte7 75BC          ___aldiv@dividend 0001  
                 _tmpData 000C00      end_of_initialization 72FC             __Lmediumconst 79FE  
        ___aldiv@quotient 000B                   postinc0 000FEE         ??_UART_Data_Ready 0001  
               _UART_Init 7780                 _UART_Read 72C2         __end_of_writePin0 7384  
       __end_of_writePin1 73D6         __end_of_writePin2 7428         __end_of_writePin3 747A  
       __end_of_writePin4 74CC         __end_of_writePin5 751E         __end_of_writePin6 7570  
       __end_of_writePin7 75C2                ?_UART_Init 000F                ?_UART_Read 0001  
     start_initialization 72E0                 _SetAllRGB 75C2          _imaginaryNumbers 0100  
          SetAllRGB@green 0001               __pbssCOMRAM 001D                ?_SetAllRGB 0001  
                ?_DelayMs 0001             ??_WS2812Write 0001             __pmediumconst 79FE  
                ?___aldiv 0001               ??_UART_Init 0013               ??_UART_Read 0001  
           ?_writePinMain 0001                UART_Init@x 001B           ___aldiv@divisor 0005  
         ___aldiv@counter 0009           _UART_Data_Ready 72B8                  _LATBbits 000F8A  
                DelayMs@i 0004                  DelayMs@x 0001       __end_of_WS2812Write 72E0  
       UART_Init@baudrate 000F            ??_writePinMain 0003                 _writePin0 7332  
               _writePin1 7384                 _writePin2 73D6                 _writePin3 7428  
               _writePin4 747A                 _writePin5 74CC                 _writePin6 751E  
               _writePin7 7570               ??_SetAllRGB 0003          __size_of_DelayMs 002C  
                __Hrparam 0000                  __Lrparam 0000                  _Sinewave 79FF  
           SetAllRGB@blue 0002          __size_of___aldiv 00DE                  _bitCount 000C01  
                __ptext10 72CE                  __ptext11 72C2                  __ptext12 7780  
                __ptext13 76A2                  __ptext14 72B8                  __ptext15 75C2  
                __ptext16 7306                  _ledCount 000C02   __end_of_UART_Data_Ready 72C2  
              ?_writePin0 0001                ?_writePin1 0001                ?_writePin2 0001  
              ?_writePin3 0001                ?_writePin4 0001                ?_writePin5 0001  
              ?_writePin6 0001                ?_writePin7 0001               _realNumbers 0060  
             _WS2812Write 72CE             __size_of_main 014E               _OSCTUNEbits 000F9B  
                byteLoop0 7344                  byteLoop1 7396                  byteLoop2 73E8  
                byteLoop3 743A                  byteLoop4 748C                  byteLoop5 74DE  
                byteLoop6 7530                  byteLoop7 7582                _RCSTA1bits 000FAB  
              _OSCCONbits 000FD3                 writeZero0 736A                 writeZero1 73BC  
               writeZero2 740E                 writeZero3 7460                 writeZero4 74B2  
               writeZero5 7504                 writeZero6 7556                 writeZero7 75A8  
    __end_of_writePinMain 76A2              ___aldiv@sign 000A                  writeOne0 7352  
                writeOne1 73A4                  writeOne2 73F6                  writeOne3 7448  
                writeOne4 749A                  writeOne5 74EC                  writeOne6 753E  
                writeOne7 7590               ??_writePin0 0001               ??_writePin1 0001  
             ??_writePin2 0001               ??_writePin3 0001               ??_writePin4 0001  
             ??_writePin5 0001               ??_writePin6 0001               ??_writePin7 0001  
        ?_UART_Data_Ready 0001  
